 buffertools

 Timestamp is 57819ff7 (Sun Jul 10 02:08:07 2016)

 Preferred load address is 0000000180000000

 Start         Length     Name                   Class
 0001:00000000 00000013H .text$di                CODE
 0001:00000020 0000f7a3H .text$mn                CODE
 0001:0000f7d0 00000279H .text$x                 CODE
 0001:0000fa50 00000000H .text$yd                CODE
 0002:00000000 00000228H .idata$5                DATA
 0002:00000228 00000008H .CRT$XCA                DATA
 0002:00000230 00000018H .CRT$XCU                DATA
 0002:00000248 00000008H .CRT$XCZ                DATA
 0002:00000250 00000008H .CRT$XIA                DATA
 0002:00000258 00000020H .CRT$XIC                DATA
 0002:00000278 00000008H .CRT$XIZ                DATA
 0002:00000280 00000008H .CRT$XPA                DATA
 0002:00000288 00000010H .CRT$XPX                DATA
 0002:00000298 00000008H .CRT$XPXA               DATA
 0002:000002a0 00000008H .CRT$XPZ                DATA
 0002:000002a8 00000008H .CRT$XTA                DATA
 0002:000002b0 00000008H .CRT$XTZ                DATA
 0002:000002c0 00007390H .rdata                  DATA
 0002:00007650 00000088H .rdata$debug            DATA
 0002:000076d8 00000274H .rdata$r                DATA
 0002:00007950 00000008H .rtc$IAA                DATA
 0002:00007958 00000008H .rtc$IZZ                DATA
 0002:00007960 00000008H .rtc$TAA                DATA
 0002:00007968 00000008H .rtc$TZZ                DATA
 0002:00007970 00000ce4H .xdata                  DATA
 0002:00008658 00000114H .xdata$x                DATA
 0002:0000876c 00000020H .didat$2                DATA
 0002:0000878c 00000020H .didat$3                DATA
 0002:000087b0 000000e8H .didat$4                DATA
 0002:00008898 00000676H .didat$6                DATA
 0002:00008f10 000000e8H .didat$7                DATA
 0002:00009000 0000005aH .edata                  DATA
 0002:0000905c 00000014H .idata$2                DATA
 0002:00009070 00000014H .idata$3                DATA
 0002:00009088 00000228H .idata$4                DATA
 0002:000092b0 00000500H .idata$6                DATA
 0003:00000000 00001828H .data                   DATA
 0003:00001828 000000c0H .data$r                 DATA
 0003:000018e8 000000e8H .didat$5                DATA
 0003:000019e0 000024b8H .bss                    DATA
 0004:00000000 00000d2cH .pdata                  DATA
 0005:00000000 00000058H .rsrc$01                DATA
 0005:00000060 00000180H .rsrc$02                DATA

  Address         Publics by Value              Rva+Base               Lib:Object

 0000:00000000       ___safe_se_handler_count   0000000000000000     <absolute>
 0000:00000000       __guard_fids_table         0000000000000000     <absolute>
 0000:00000000       ___safe_se_handler_table   0000000000000000     <absolute>
 0000:00000000       __guard_flags              0000000000000000     <absolute>
 0000:00000000       __guard_fids_count         0000000000000000     <absolute>
 0000:00000000       __ImageBase                0000000180000000     <linker-defined>
 0001:00000020       ?prepare_goodsuffix_heuristic@@YAXPEBE_KQEAH@Z 0000000180001020 f   buffertools.obj
 0001:00000200       ?boyermoore_search@@YAPEBEPEBE_K01@Z 0000000180001200 f   buffertools.obj
 0001:000003a0       ?snprintf@?A0xf709e2fd@@YAHPEAD_KPEBDZZ 00000001800013a0 f i buffertools.obj
 0001:000003f0       ?fill@?A0xf709e2fd@@YA?AV?$Local@VValue@v8@@@v8@@V?$Local@VObject@v8@@@3@PEAX_K@Z 00000001800013f0 f   buffertools.obj
 0001:000004c0       ?apply@FillAction@?A0xf709e2fd@@QEAA?AV?$Local@VValue@v8@@@v8@@V?$Local@VObject@v8@@@4@AEBV?$FunctionCallbackInfo@VValue@v8@@@4@I@Z 00000001800014c0 f i buffertools.obj
 0001:00000740       ?apply@IndexOfAction@?A0xf709e2fd@@QEAA?AV?$Local@VValue@v8@@@v8@@V?$Local@VObject@v8@@@4@PEBE_KAEBV?$FunctionCallbackInfo@VValue@v8@@@4@I@Z 0000000180001740 f i buffertools.obj
 0001:00000840       ?decodeHex@?A0xf709e2fd@@YA?AV?$Local@VValue@v8@@@v8@@QEBE_KAEBV?$FunctionCallbackInfo@VValue@v8@@@3@I@Z 0000000180001840 f i buffertools.obj
 0001:000009a0       ?apply@ToHexAction@?A0xf709e2fd@@QEAA?AV?$Local@VValue@v8@@@v8@@V?$Local@VObject@v8@@@4@AEBV?$FunctionCallbackInfo@VValue@v8@@@4@I@Z 00000001800019a0 f i buffertools.obj
 0001:00000ae0       ?Clear@?A0xf709e2fd@@YAXAEBV?$FunctionCallbackInfo@VValue@v8@@@v8@@@Z 0000000180001ae0 f   buffertools.obj
 0001:00000c50       ?Compare@?A0xf709e2fd@@YAXAEBV?$FunctionCallbackInfo@VValue@v8@@@v8@@@Z 0000000180001c50 f   buffertools.obj
 0001:00000cb0       ?Equals@?A0xf709e2fd@@YAXAEBV?$FunctionCallbackInfo@VValue@v8@@@v8@@@Z 0000000180001cb0 f   buffertools.obj
 0001:00000d10       ?Fill@?A0xf709e2fd@@YAXAEBV?$FunctionCallbackInfo@VValue@v8@@@v8@@@Z 0000000180001d10 f   buffertools.obj
 0001:00000e50       ?FromHex@?A0xf709e2fd@@YAXAEBV?$FunctionCallbackInfo@VValue@v8@@@v8@@@Z 0000000180001e50 f   buffertools.obj
 0001:00000eb0       ?IndexOf@?A0xf709e2fd@@YAXAEBV?$FunctionCallbackInfo@VValue@v8@@@v8@@@Z 0000000180001eb0 f   buffertools.obj
 0001:00000f10       ?Reverse@?A0xf709e2fd@@YAXAEBV?$FunctionCallbackInfo@VValue@v8@@@v8@@@Z 0000000180001f10 f   buffertools.obj
 0001:000010a0       ?ToHex@?A0xf709e2fd@@YAXAEBV?$FunctionCallbackInfo@VValue@v8@@@v8@@@Z 00000001800020a0 f   buffertools.obj
 0001:000011e0       ?Concat@?A0xf709e2fd@@YAXAEBV?$FunctionCallbackInfo@VValue@v8@@@v8@@@Z 00000001800021e0 f   buffertools.obj
 0001:00001500       ?RegisterModule@?A0xf709e2fd@@YAXV?$Local@VObject@v8@@@v8@@@Z 0000000180002500 f   buffertools.obj
 0001:00001a20       ??R?$BinaryAction@UEqualsAction@?A0xf709e2fd@@@?A0xf709e2fd@@QEAA?AV?$Local@VValue@v8@@@v8@@AEBV?$FunctionCallbackInfo@VValue@v8@@@3@@Z 0000000180002a20 f i buffertools.obj
 0001:00001d50       ??R?$BinaryAction@UCompareAction@?A0xf709e2fd@@@?A0xf709e2fd@@QEAA?AV?$Local@VValue@v8@@@v8@@AEBV?$FunctionCallbackInfo@VValue@v8@@@3@@Z 0000000180002d50 f i buffertools.obj
 0001:000020a0       ??R?$BinaryAction@UIndexOfAction@?A0xf709e2fd@@@?A0xf709e2fd@@QEAA?AV?$Local@VValue@v8@@@v8@@AEBV?$FunctionCallbackInfo@VValue@v8@@@3@@Z 00000001800030a0 f i buffertools.obj
 0001:00002320       ??R?$UnaryAction@UFromHexAction@?A0xf709e2fd@@@?A0xf709e2fd@@QEAA?AV?$Local@VValue@v8@@@v8@@AEBV?$FunctionCallbackInfo@VValue@v8@@@3@@Z 0000000180003320 f i buffertools.obj
 0001:00002470       ?assign@?$basic_string@DU?$char_traits@D@std@@V?$allocator@D@2@@std@@QEAAAEAV12@_KD@Z 0000000180003470 f i buffertools.obj
 0001:00002570       ?_Copy@?$basic_string@DU?$char_traits@D@std@@V?$allocator@D@2@@std@@QEAAX_K0@Z 0000000180003570 f i buffertools.obj
 0001:000026ac       __imp_load_?Length@Buffer@node@@YA_KV?$Local@VObject@v8@@@v8@@@Z 00000001800036ac f   node:node.exe
 0001:000026b8       __tailMerge_node_exe       00000001800036b8 f i node:node.exe
 0001:00002731       __imp_load_?Data@Buffer@node@@YAPEADV?$Local@VObject@v8@@@v8@@@Z 0000000180003731 f   node:node.exe
 0001:0000273d       __imp_load_?HasInstance@Buffer@node@@YA_NV?$Local@VValue@v8@@@v8@@@Z 000000018000373d f   node:node.exe
 0001:00002749       __imp_load_?HasInstance@Buffer@node@@YA_NV?$Local@VObject@v8@@@v8@@@Z 0000000180003749 f   node:node.exe
 0001:00002755       __imp_load_?New@Buffer@node@@YA?AV?$MaybeLocal@VObject@v8@@@v8@@PEAVIsolate@4@_K@Z 0000000180003755 f   node:node.exe
 0001:00002761       __imp_load_node_module_register 0000000180003761 f   node:node.exe
 0001:0000276d       __imp_load_?ToLocalEmpty@V8@v8@@CAXXZ 000000018000376d f   node:node.exe
 0001:00002779       __imp_load_?Escape@EscapableHandleScope@v8@@AEAAPEAPEAVObject@internal@2@PEAPEAV342@@Z 0000000180003779 f   node:node.exe
 0001:00002785       __imp_load_??0EscapableHandleScope@v8@@QEAA@PEAVIsolate@1@@Z 0000000180003785 f   node:node.exe
 0001:00002791       __imp_load_?Int32Value@Value@v8@@QEBAHXZ 0000000180003791 f   node:node.exe
 0001:0000279d       __imp_load_?IsInt32@Value@v8@@QEBA_NXZ 000000018000379d f   node:node.exe
 0001:000027a9       __imp_load_?GetFunction@FunctionTemplate@v8@@QEAA?AV?$Local@VFunction@v8@@@2@XZ 00000001800037a9 f   node:node.exe
 0001:000027b5       __imp_load_?New@FunctionTemplate@v8@@SA?AV?$Local@VFunctionTemplate@v8@@@2@PEAVIsolate@2@P6AXAEBV?$FunctionCallbackInfo@VValue@v8@@@2@@ZV?$Local@VValue@v8@@@2@V?$Local@VSignature@v8@@@2@H@Z 00000001800037b5 f   node:node.exe
 0001:000027c1       __imp_load_?Error@Exception@v8@@SA?AV?$Local@VValue@v8@@@2@V?$Local@VString@v8@@@2@@Z 00000001800037c1 f   node:node.exe
 0001:000027cd       __imp_load_?TypeError@Exception@v8@@SA?AV?$Local@VValue@v8@@@2@V?$Local@VString@v8@@@2@@Z 00000001800037cd f   node:node.exe
 0001:000027d9       __imp_load_??1Utf8Value@String@v8@@QEAA@XZ 00000001800037d9 f   node:node.exe
 0001:000027e5       __imp_load_??0Utf8Value@String@v8@@QEAA@V?$Local@VValue@v8@@@2@@Z 00000001800037e5 f   node:node.exe
 0001:000027f1       __imp_load_?NewFromUtf8@String@v8@@SA?AV?$Local@VString@v8@@@2@PEAVIsolate@2@PEBDW4NewStringType@12@H@Z 00000001800037f1 f   node:node.exe
 0001:000027fd       __imp_load_?Utf8Length@String@v8@@QEBAHXZ 00000001800037fd f   node:node.exe
 0001:00002809       __imp_load_??1HandleScope@v8@@QEAA@XZ 0000000180003809 f   node:node.exe
 0001:00002815       __imp_load_??0HandleScope@v8@@QEAA@PEAVIsolate@1@@Z 0000000180003815 f   node:node.exe
 0001:00002821       __imp_load_?Set@Object@v8@@QEAA_NV?$Local@VValue@v8@@@2@0@Z 0000000180003821 f   node:node.exe
 0001:0000282d       __imp_load_?New@Integer@v8@@SA?AV?$Local@VInteger@v8@@@2@PEAVIsolate@2@H@Z 000000018000382d f   node:node.exe
 0001:00002839       __imp_load_?SetName@Function@v8@@QEAAXV?$Local@VString@v8@@@2@@Z 0000000180003839 f   node:node.exe
 0001:00002845       __imp_load_?ThrowException@Isolate@v8@@QEAA?AV?$Local@VValue@v8@@@2@V32@@Z 0000000180003845 f   node:node.exe
 0001:00002851       __imp_load_?GetCurrent@Isolate@v8@@SAPEAV12@XZ 0000000180003851 f   node:node.exe
 0001:0000285d       __imp_load_?ToObject@Value@v8@@QEBA?AV?$Local@VObject@v8@@@2@XZ 000000018000385d f   node:node.exe
 0001:00002869       __imp_load_?ToString@Value@v8@@QEBA?AV?$Local@VString@v8@@@2@XZ 0000000180003869 f   node:node.exe
 0001:00002878       ??0bad_alloc@std@@QEAA@AEBV01@@Z 0000000180003878 f i libcpmt:xthrow.obj
 0001:0000289c       ??0length_error@std@@QEAA@AEBV01@@Z 000000018000389c f i libcpmt:xthrow.obj
 0001:000028c0       ??0logic_error@std@@QEAA@AEBV01@@Z 00000001800038c0 f i libcpmt:xthrow.obj
 0001:000028e4       ??1bad_alloc@std@@UEAA@XZ  00000001800038e4 f i libcpmt:xthrow.obj
 0001:000028f4       ??1length_error@std@@UEAA@XZ 00000001800038f4 f i libcpmt:xthrow.obj
 0001:000028fc       ??_Ebad_alloc@std@@UEAAPEAXI@Z 00000001800038fc f i libcpmt:xthrow.obj
 0001:000028fc       ??_Gbad_alloc@std@@UEAAPEAXI@Z 00000001800038fc f i libcpmt:xthrow.obj
 0001:00002938       ??_Glength_error@std@@UEAAPEAXI@Z 0000000180003938 f i libcpmt:xthrow.obj
 0001:00002938       ??_Glogic_error@std@@UEAAPEAXI@Z 0000000180003938 f i libcpmt:xthrow.obj
 0001:00002938       ??_Elength_error@std@@UEAAPEAXI@Z 0000000180003938 f i libcpmt:xthrow.obj
 0001:00002938       ??_Elogic_error@std@@UEAAPEAXI@Z 0000000180003938 f i libcpmt:xthrow.obj
 0001:00002968       ?_Xbad_alloc@std@@YAXXZ    0000000180003968 f   libcpmt:xthrow.obj
 0001:000029ac       ?_Xlength_error@std@@YAXPEBD@Z 00000001800039ac f   libcpmt:xthrow.obj
 0001:00002a00       __security_check_cookie    0000000180003a00 f   LIBCMT:amdsecgs.obj
 0001:00002a20       abort                      0000000180003a20 f   LIBCMT:abort.obj
 0001:00002a90       memcpy                     0000000180003a90 f   LIBCMT:memcpy.obj
 0001:00002a90       memmove                    0000000180003a90 f   LIBCMT:memcpy.obj
 0001:00002ff8       __onexitinit               0000000180003ff8 f   LIBCMT:onexit.obj
 0001:0000303c       _onexit                    000000018000403c f   LIBCMT:onexit.obj
 0001:00003148       atexit                     0000000180004148 f   LIBCMT:onexit.obj
 0001:00003160       ??3@YAXPEAX@Z              0000000180004160 f   LIBCMT:delete.obj
 0001:00003168       _vsnprintf_helper          0000000180004168 f   LIBCMT:vsnprnc.obj
 0001:00003250       _vsprintf_p                0000000180004250 f   LIBCMT:vsnprnc.obj
 0001:00003284       ??2@YAPEAX_K@Z             0000000180004284 f   LIBCMT:new.obj
 0001:000032f0       ??0_LocaleUpdate@@QEAA@PEAUlocaleinfo_struct@@@Z 00000001800042f0 f i LIBCMT:stricmp.obj
 0001:00003398       __ascii_stricmp            0000000180004398 f   LIBCMT:stricmp.obj
 0001:000033d4       _stricmp                   00000001800043d4 f   LIBCMT:stricmp.obj
 0001:0000341c       _stricmp_l                 000000018000441c f   LIBCMT:stricmp.obj
 0001:000034d0       _CRT_INIT                  00000001800044d0 f   LIBCMT:dllcrt0.obj
 0001:00003630       _DllMainCRTStartup         0000000180004630 f   LIBCMT:dllcrt0.obj
 0001:000037a0       strlen                     00000001800047a0 f   LIBCMT:strlen.obj
 0001:00003848       _CxxThrowException         0000000180004848 f   LIBCMT:throw.obj
 0001:00003910       ??_Gtype_info@@UEAAPEAXI@Z 0000000180004910 f i LIBCMT:typinfo.obj
 0001:00003910       ??_Etype_info@@UEAAPEAXI@Z 0000000180004910 f i LIBCMT:typinfo.obj
 0001:0000394c       _fpmath                    000000018000494c f   LIBCMT:fpinit.obj
 0001:00003954       _cfltcvt_init              0000000180004954 f   LIBCMT:fpinit.obj
 0001:000039dc       ??0exception@std@@QEAA@AEBQEBD@Z 00000001800049dc f   LIBCMT:stdexcpt.obj
 0001:00003a0c       ??0exception@std@@QEAA@AEBQEBDH@Z 0000000180004a0c f   LIBCMT:stdexcpt.obj
 0001:00003a28       ??0exception@std@@QEAA@AEBV01@@Z 0000000180004a28 f   LIBCMT:stdexcpt.obj
 0001:00003a54       ??1exception@std@@UEAA@XZ  0000000180004a54 f   LIBCMT:stdexcpt.obj
 0001:00003a64       ??4exception@std@@QEAAAEAV01@AEBV01@@Z 0000000180004a64 f   LIBCMT:stdexcpt.obj
 0001:00003aa8       ??_Gexception@std@@UEAAPEAXI@Z 0000000180004aa8 f i LIBCMT:stdexcpt.obj
 0001:00003aa8       ??_Eexception@std@@UEAAPEAXI@Z 0000000180004aa8 f i LIBCMT:stdexcpt.obj
 0001:00003ae4       ?_Copy_str@exception@std@@AEAAXPEBD@Z 0000000180004ae4 f   LIBCMT:stdexcpt.obj
 0001:00003b40       ?_Tidy@exception@std@@AEAAXXZ 0000000180004b40 f   LIBCMT:stdexcpt.obj
 0001:00003b68       ?what@exception@std@@UEBAPEBDXZ 0000000180004b68 f   LIBCMT:stdexcpt.obj
 0001:00003b7c       __raise_securityfailure    0000000180004b7c f   LIBCMT:gs_report.obj
 0001:00003bc8       __report_gsfailure         0000000180004bc8 f   LIBCMT:gs_report.obj
 0001:00003c9c       __crtCorExitProcess        0000000180004c9c f   LIBCMT:crt0dat.obj
 0001:00003ce0       __crtExitProcess           0000000180004ce0 f   LIBCMT:crt0dat.obj
 0001:00003cf8       __freeCrtMemory            0000000180004cf8 f   LIBCMT:crt0dat.obj
 0001:00003e40       _amsg_exit                 0000000180004e40 f   LIBCMT:crt0dat.obj
 0001:00003e68       _cexit                     0000000180004e68 f   LIBCMT:crt0dat.obj
 0001:00003e78       _cinit                     0000000180004e78 f   LIBCMT:crt0dat.obj
 0001:00003f10       _exit                      0000000180004f10 f   LIBCMT:crt0dat.obj
 0001:00003f1c       _init_pointers             0000000180004f1c f   LIBCMT:crt0dat.obj
 0001:00003fc8       _initterm_e                0000000180004fc8 f   LIBCMT:crt0dat.obj
 0001:00004004       _lockexit                  0000000180005004 f   LIBCMT:crt0dat.obj
 0001:00004010       _unlockexit                0000000180005010 f   LIBCMT:crt0dat.obj
 0001:000041b4       __get_sigabrt              00000001800051b4 f   LIBCMT:winsig.obj
 0001:000041c4       _initp_misc_winsig         00000001800051c4 f   LIBCMT:winsig.obj
 0001:000041e4       raise                      00000001800051e4 f   LIBCMT:winsig.obj
 0001:00004418       _call_reportfault          0000000180005418 f   LIBCMT:invarg.obj
 0001:0000450c       _initp_misc_invarg         000000018000550c f   LIBCMT:invarg.obj
 0001:00004514       _invalid_parameter         0000000180005514 f   LIBCMT:invarg.obj
 0001:0000457c       _invalid_parameter_noinfo  000000018000557c f   LIBCMT:invarg.obj
 0001:0000459c       _invoke_watson             000000018000559c f   LIBCMT:invarg.obj
 0001:000045d8       __isa_available_init       00000001800055d8 f   LIBCMT:cpu_disp.obj
 0001:0000477c       _msize                     000000018000577c f   LIBCMT:msize.obj
 0001:000047b8       _calloc_crt                00000001800057b8 f   LIBCMT:crtheap.obj
 0001:00004838       _malloc_crt                0000000180005838 f   LIBCMT:crtheap.obj
 0001:000048b4       _realloc_crt               00000001800058b4 f   LIBCMT:crtheap.obj
 0001:00004938       __C_specific_handler       0000000180005938 f   LIBCMT:chandler.obj
 0001:00004b1c       _initp_misc_purevirt       0000000180005b1c f   LIBCMT:inithelp.obj
 0001:00004b24       free                       0000000180005b24 f   LIBCMT:free.obj
 0001:00004b64       _flsbuf                    0000000180005b64 f   LIBCMT:_flsbuf.obj
 0001:00004cf0       _output_p_l                0000000180005cf0 f   LIBCMT:outputp.obj
 0001:00005dc4       _validate_param_reuseA     0000000180006dc4 f   LIBCMT:outputp.obj
 0001:00006018       __doserrno                 0000000180007018 f   LIBCMT:dosmap.obj
 0001:00006038       _dosmaperr                 0000000180007038 f   LIBCMT:dosmap.obj
 0001:00006088       _errno                     0000000180007088 f   LIBCMT:dosmap.obj
 0001:000060a8       _get_errno_from_oserr      00000001800070a8 f   LIBCMT:dosmap.obj
 0001:00006110       memset                     0000000180007110 f   LIBCMT:memset.obj
 0001:0000633c       malloc                     000000018000733c f   LIBCMT:malloc.obj
 0001:000063f4       _callnewh                  00000001800073f4 f   LIBCMT:handler.obj
 0001:00006428       _initp_heap_handler        0000000180007428 f   LIBCMT:handler.obj
 0001:00006430       __addlocaleref             0000000180007430 f   LIBCMT:localref.obj
 0001:000064bc       __freetlocinfo             00000001800074bc f   LIBCMT:localref.obj
 0001:00006654       __removelocaleref          0000000180007654 f   LIBCMT:localref.obj
 0001:000066f8       __updatetlocinfo           00000001800076f8 f   LIBCMT:localref.obj
 0001:00006770       _updatetlocinfoEx_nolock   0000000180007770 f   LIBCMT:localref.obj
 0001:000067d4       __initmbctable             00000001800077d4 f   LIBCMT:mbctype.obj
 0001:00006af0       __updatetmbcinfo           0000000180007af0 f   LIBCMT:mbctype.obj
 0001:00006bac       _setmbcp                   0000000180007bac f   LIBCMT:mbctype.obj
 0001:00006df0       _setmbcp_nolock            0000000180007df0 f   LIBCMT:mbctype.obj
 0001:000070a0       _tolower_l                 00000001800080a0 f   LIBCMT:tolower.obj
 0001:000071f4       tolower                    00000001800081f4 f   LIBCMT:tolower.obj
 0001:00007214       _freefls                   0000000180008214 f   LIBCMT:tidtable.obj
 0001:00007348       _freeptd                   0000000180008348 f   LIBCMT:tidtable.obj
 0001:00007384       _getptd                    0000000180008384 f   LIBCMT:tidtable.obj
 0001:000073a8       _getptd_noexit             00000001800083a8 f   LIBCMT:tidtable.obj
 0001:0000742c       _initptd                   000000018000842c f   LIBCMT:tidtable.obj
 0001:000074f0       _mtinit                    00000001800084f0 f   LIBCMT:tidtable.obj
 0001:00007570       _mtterm                    0000000180008570 f   LIBCMT:tidtable.obj
 0001:00007594       _locterm                   0000000180008594 f   LIBCMT:wsetloca.obj
 0001:000075dc       _XcptFilter                00000001800085dc f   LIBCMT:winxfltr.obj
 0001:000077a8       __CppXcptFilter            00000001800087a8 f   LIBCMT:winxfltr.obj
 0001:000077bc       _heap_init                 00000001800087bc f   LIBCMT:heapinit.obj
 0001:000077dc       _heap_term                 00000001800087dc f   LIBCMT:heapinit.obj
 0001:000077e8       _ioinit                    00000001800087e8 f   LIBCMT:ioinit.obj
 0001:00007b18       _ioterm                    0000000180008b18 f   LIBCMT:ioinit.obj
 0001:00007b8c       _setargv                   0000000180008b8c f   LIBCMT:stdargv.obj
 0001:00007e48       _setenvp                   0000000180008e48 f   LIBCMT:stdenvp.obj
 0001:00007f7c       __security_init_cookie     0000000180008f7c f   LIBCMT:gs_support.obj
 0001:00008028       DllMain                    0000000180009028 f   LIBCMT:dllmain.obj
 0001:00008030       __crtGetEnvironmentStringsA 0000000180009030 f   LIBCMT:a_env.obj
 0001:00008124       __crtCaptureCurrentContext 0000000180009124 f   LIBCMT:winapisupp.obj
 0001:00008194       __crtCapturePreviousContext 0000000180009194 f   LIBCMT:winapisupp.obj
 0001:00008208       __crtFlsAlloc              0000000180009208 f   LIBCMT:winapisupp.obj
 0001:00008224       __crtFlsFree               0000000180009224 f   LIBCMT:winapisupp.obj
 0001:00008240       __crtFlsGetValue           0000000180009240 f   LIBCMT:winapisupp.obj
 0001:0000825c       __crtFlsSetValue           000000018000925c f   LIBCMT:winapisupp.obj
 0001:00008278       __crtInitializeCriticalSectionEx 0000000180009278 f   LIBCMT:winapisupp.obj
 0001:000082a4       __crtIsPackagedApp         00000001800092a4 f   LIBCMT:winapisupp.obj
 0001:000082f0       __crtLoadWinApiPointers    00000001800092f0 f   LIBCMT:winapisupp.obj
 0001:000086ec       __crtSleep                 00000001800096ec f   LIBCMT:winapisupp.obj
 0001:000086f4       __crtTerminateProcess      00000001800096f4 f   LIBCMT:winapisupp.obj
 0001:00008714       __crtUnhandledException    0000000180009714 f   LIBCMT:winapisupp.obj
 0001:00008734       _RTC_Initialize            0000000180009734 f   LIBCMT:initsect.obj
 0001:0000876c       _RTC_Terminate             000000018000976c f   LIBCMT:initsect.obj
 0001:000087a4       __DestructExceptionObject  00000001800097a4 f   LIBCMT:frame.obj
 0001:00008814       ?terminate@@YAXXZ          0000000180009814 f   LIBCMT:hooks.obj
 0001:00008834       _initp_eh_hooks            0000000180009834 f   LIBCMT:hooks.obj
 0001:00008854       __GSHandlerCheck           0000000180009854 f   LIBCMT:gshandler.obj
 0001:00008874       __GSHandlerCheckCommon     0000000180009874 f   LIBCMT:gshandler.obj
 0001:000088f0       strcmp                     00000001800098f0 f   LIBCMT:strcmp.obj
 0001:00008958       ?_Type_info_dtor@type_info@@CAXPEAV1@@Z 0000000180009958 f   LIBCMT:typname.obj
 0001:000089c4       _cfltcvt                   00000001800099c4 f   LIBCMT:cvt.obj
 0001:000089e8       _cfltcvt_l                 00000001800099e8 f   LIBCMT:cvt.obj
 0001:00008a68       _cftoa_l                   0000000180009a68 f   LIBCMT:cvt.obj
 0001:00009014       _cftoe_l                   000000018000a014 f   LIBCMT:cvt.obj
 0001:00009270       _cftof_l                   000000018000a270 f   LIBCMT:cvt.obj
 0001:00009344       _cftog_l                   000000018000a344 f   LIBCMT:cvt.obj
 0001:00009478       _cropzeros                 000000018000a478 f   LIBCMT:cvt.obj
 0001:00009480       _cropzeros_l               000000018000a480 f   LIBCMT:cvt.obj
 0001:00009518       _fassign                   000000018000a518 f   LIBCMT:cvt.obj
 0001:00009520       _fassign_l                 000000018000a520 f   LIBCMT:cvt.obj
 0001:00009560       _forcdecpt                 000000018000a560 f   LIBCMT:cvt.obj
 0001:00009568       _forcdecpt_l               000000018000a568 f   LIBCMT:cvt.obj
 0001:000095e8       _positive                  000000018000a5e8 f   LIBCMT:cvt.obj
 0001:000095fc       _initp_misc_cfltcvt_tab    000000018000a5fc f   LIBCMT:cmiscdat.obj
 0001:00009638       strcpy_s                   000000018000a638 f   LIBCMT:strcpy_s.obj
 0001:0000969c       __crt_debugger_hook        000000018000a69c f   LIBCMT:dbghook.obj
 0001:000096a4       _lock                      000000018000a6a4 f   LIBCMT:mlock.obj
 0001:000096e8       _mtdeletelocks             000000018000a6e8 f   LIBCMT:mlock.obj
 0001:00009770       _mtinitlocknum             000000018000a770 f   LIBCMT:mlock.obj
 0001:00009830       _mtinitlocks               000000018000a830 f   LIBCMT:mlock.obj
 0001:00009894       _unlock                    000000018000a894 f   LIBCMT:mlock.obj
 0001:000098ac       _FF_MSGBANNER              000000018000a8ac f   LIBCMT:crt0msg.obj
 0001:000098f0       _GET_RTERRMSG              000000018000a8f0 f   LIBCMT:crt0msg.obj
 0001:00009920       _NMSG_WRITE                000000018000a920 f   LIBCMT:crt0msg.obj
 0001:00009b90       _FindPESection             000000018000ab90 f   LIBCMT:pesect.obj
 0001:00009be0       _IsNonwritableInCurrentImage 000000018000abe0 f   LIBCMT:pesect.obj
 0001:00009c30       _ValidateImageBase         000000018000ac30 f   LIBCMT:pesect.obj
 0001:00009c60       _initp_misc_rand_s         000000018000ac60 f   LIBCMT:rand_s.obj
 0001:00009c68       realloc                    000000018000ac68 f   LIBCMT:realloc.obj
 0001:00009d3c       _calloc_impl               000000018000ad3c f   LIBCMT:calloc_impl.obj
 0001:00009df0       _local_unwind              000000018000adf0 f   LIBCMT:jmpuwind.obj
 0001:00009e20       _NLG_Notify                000000018000ae20 f   LIBCMT:jmpuwind.obj
 0001:00009e40       __NLG_Dispatch2            000000018000ae40 f   LIBCMT:jmpuwind.obj
 0001:00009e50       __NLG_Return2              000000018000ae50 f   LIBCMT:jmpuwind.obj
 0001:00009e54       GetTableIndexFromLocaleName 000000018000ae54 f   LIBCMT:winapinls.obj
 0001:00009ee0       __crtDownlevelLocaleNameToLCID 000000018000aee0 f   LIBCMT:winapinls.obj
 0001:00009f14       __crtLCMapStringEx         000000018000af14 f   LIBCMT:winapinls.obj
 0001:00009fa4       __wcsnicmp_ascii           000000018000afa4 f   LIBCMT:winapinls.obj
 0001:0000a010       _get_fpsr                  000000018000b010 f   LIBCMT:fpsr.obj
 0001:0000a020       _set_fpsr                  000000018000b020 f   LIBCMT:fpsr.obj
 0001:0000a02a       _fclrf                     000000018000b02a f   LIBCMT:fpsr.obj
 0001:0000a03e       _frnd                      000000018000b03e f   LIBCMT:fpsr.obj
 0001:0000a060       __initstdio                000000018000b060 f   LIBCMT:_file.obj
 0001:0000a0f8       __endstdio                 000000018000b0f8 f   LIBCMT:_file.obj
 0001:0000a128       __iob_func                 000000018000b128 f   LIBCMT:_file.obj
 0001:0000a130       _lock_file                 000000018000b130 f   LIBCMT:_file.obj
 0001:0000a198       _lock_file2                000000018000b198 f   LIBCMT:_file.obj
 0001:0000a1cc       _unlock_file               000000018000b1cc f   LIBCMT:_file.obj
 0001:0000a21c       _unlock_file2              000000018000b21c f   LIBCMT:_file.obj
 0001:0000a23c       _fileno                    000000018000b23c f   LIBCMT:fileno.obj
 0001:0000a264       _isatty                    000000018000b264 f   LIBCMT:isatty.obj
 0001:0000a2c4       _write                     000000018000b2c4 f   LIBCMT:write.obj
 0001:0000a3a8       _write_nolock              000000018000b3a8 f   LIBCMT:write.obj
 0001:0000ab9c       _lseeki64                  000000018000bb9c f   LIBCMT:lseeki64.obj
 0001:0000ac84       _lseeki64_nolock           000000018000bc84 f   LIBCMT:lseeki64.obj
 0001:0000ad18       _getbuf                    000000018000bd18 f   LIBCMT:_getbuf.obj
 0001:0000ad6c       _isleadbyte_l              000000018000bd6c f i LIBCMT:_wctype.obj
 0001:0000adb0       isleadbyte                 000000018000bdb0 f i LIBCMT:_wctype.obj
 0001:0000adf8       _get_printf_count_output   000000018000bdf8 f   LIBCMT:printf.obj
 0001:0000ae10       _wctomb_s_l                000000018000be10 f   LIBCMT:wctomb.obj
 0001:0000af9c       wctomb_s                   000000018000bf9c f   LIBCMT:wctomb.obj
 0001:0000b1ec       strtol                     000000018000c1ec f   LIBCMT:strtol.obj
 0001:0000b21c       __free_lconv_mon           000000018000c21c f   LIBCMT:initmon.obj
 0001:0000b328       __free_lconv_num           000000018000c328 f   LIBCMT:initnum.obj
 0001:0000b394       __free_lc_time             000000018000c394 f   LIBCMT:inittime.obj
 0001:0000ba7c       __crtLCMapStringA          000000018000ca7c f   LIBCMT:a_map.obj
 0001:0000bc8c       __crtGetStringTypeA        000000018000cc8c f   LIBCMT:a_str.obj
 0001:0000bd08       _isctype_l                 000000018000cd08 f   LIBCMT:isctype.obj
 0001:0000be00       memcmp                     000000018000ce00 f   LIBCMT:memcmp.obj
 0001:0000bec8       wcscat_s                   000000018000cec8 f   LIBCMT:wcscat_s.obj
 0001:0000bf50       wcscpy_s                   000000018000cf50 f   LIBCMT:wcscpy_s.obj
 0001:0000bfbc       wcslen                     000000018000cfbc f   LIBCMT:wcslen.obj
 0001:0000bfd8       wcsncpy_s                  000000018000cfd8 f   LIBCMT:wcsncpy_s.obj
 0001:0000c120       _ismbblead                 000000018000d120 f   LIBCMT:ismbbyte.obj
 0001:0000c150       _CallSettingFrame          000000018000d150 f   LIBCMT:handlers.obj
 0001:0000c190       _GetNextInstrOffset        000000018000d190 f   LIBCMT:handlers.obj
 0001:0000c198       isdigit                    000000018000d198 f i LIBCMT:_ctype.obj
 0001:0000c214       strrchr                    000000018000d214 f   LIBCMT:strrchr.obj
 0001:0000c358       _fptostr                   000000018000d358 f   LIBCMT:_fptostr.obj
 0001:0000c424       __crt_atoflt_l             000000018000d424 f   LIBCMT:atodbl.obj
 0001:0000c4f4       _atodbl_l                  000000018000d4f4 f   LIBCMT:atodbl.obj
 0001:0000c5bc       _atoflt_l                  000000018000d5bc f   LIBCMT:atodbl.obj
 0001:0000c5c4       __dtold                    000000018000d5c4 f   LIBCMT:cfout.obj
 0001:0000c694       _fltout2                   000000018000d694 f   LIBCMT:cfout.obj
 0001:0000c74c       _fptrap                    000000018000d74c f   LIBCMT:crt0fp.obj
 0001:0000c758       _set_error_mode            000000018000d758 f   LIBCMT:errmode.obj
 0001:0000c798       __crtMessageBoxW           000000018000d798 f   LIBCMT:crtmboxw.obj
 0001:0000ca0c       _fflush_nolock             000000018000da0c f   LIBCMT:fflush.obj
 0001:0000ca58       _flush                     000000018000da58 f   LIBCMT:fflush.obj
 0001:0000cad4       _flushall                  000000018000dad4 f   LIBCMT:fflush.obj
 0001:0000cbe0       __chkstk                   000000018000dbe0 f   LIBCMT:chkstk.obj
 0001:0000cbe0       _alloca_probe              000000018000dbe0 f   LIBCMT:chkstk.obj
 0001:0000cc30       _fcloseall                 000000018000dc30 f   LIBCMT:closeall.obj
 0001:0000ccd8       __lock_fhandle             000000018000dcd8 f   LIBCMT:osfinfo.obj
 0001:0000cd70       _free_osfhnd               000000018000dd70 f   LIBCMT:osfinfo.obj
 0001:0000ce1c       _get_osfhandle             000000018000de1c f   LIBCMT:osfinfo.obj
 0001:0000ce90       _unlock_fhandle            000000018000de90 f   LIBCMT:osfinfo.obj
 0001:0000cebc       _mbtowc_l                  000000018000debc f   LIBCMT:mbtowc.obj
 0001:0000d010       mbtowc                     000000018000e010 f   LIBCMT:mbtowc.obj
 0001:0000d018       _putwch_nolock             000000018000e018 f   LIBCMT:putwch.obj
 0001:0000d074       _ld12tod                   000000018000e074 f   LIBCMT:intrncvt.obj
 0001:0000d62c       _ld12tof                   000000018000e62c f   LIBCMT:intrncvt.obj
 0001:0000dbe4       __strgtold12_l             000000018000ebe4 f   LIBCMT:strgtold.obj
 0001:0000e448       $I10_OUTPUT                000000018000f448 f   LIBCMT:x10fout.obj
 0001:0000ef20       _commit                    000000018000ff20 f   LIBCMT:commit.obj
 0001:0000eff8       _fclose_nolock             000000018000fff8 f   LIBCMT:fclose.obj
 0001:0000f074       fclose                     0000000180010074 f   LIBCMT:fclose.obj
 0001:0000f0dc       __termconout               00000001800100dc f   LIBCMT:initcon.obj
 0001:0000f0fc       __initconout               00000001800100fc f   LIBCMT:initcon.obj
 0001:0000f138       __mtold12                  0000000180010138 f   LIBCMT:mantold.obj
 0001:0000f35c       _close                     000000018001035c f   LIBCMT:close.obj
 0001:0000f420       _close_nolock              0000000180010420 f   LIBCMT:close.obj
 0001:0000f4dc       _freebuf                   00000001800104dc f   LIBCMT:_freebuf.obj
 0001:0000f520       IsProcessorFeaturePresent  0000000180010520 f   kernel32:KERNEL32.dll
 0001:0000f526       RtlUnwindEx                0000000180010526 f   kernel32:KERNEL32.dll
 0001:0000f52c       __delayLoadHelper2         000000018001052c f   DelayImp:delayhlp.obj
 0002:00000000       __imp_GetModuleHandleA     0000000180011000     kernel32:KERNEL32.dll
 0002:00000008       __imp_IsProcessorFeaturePresent 0000000180011008     kernel32:KERNEL32.dll
 0002:00000010       __imp_EncodePointer        0000000180011010     kernel32:KERNEL32.dll
 0002:00000018       __imp_DecodePointer        0000000180011018     kernel32:KERNEL32.dll
 0002:00000020       __imp_GetCommandLineA      0000000180011020     kernel32:KERNEL32.dll
 0002:00000028       __imp_GetCurrentThreadId   0000000180011028     kernel32:KERNEL32.dll
 0002:00000030       __imp_RtlPcToFileHeader    0000000180011030     kernel32:KERNEL32.dll
 0002:00000038       __imp_RaiseException       0000000180011038     kernel32:KERNEL32.dll
 0002:00000040       __imp_RtlLookupFunctionEntry 0000000180011040     kernel32:KERNEL32.dll
 0002:00000048       __imp_RtlUnwindEx          0000000180011048     kernel32:KERNEL32.dll
 0002:00000050       __imp_IsDebuggerPresent    0000000180011050     kernel32:KERNEL32.dll
 0002:00000058       __imp_GetLastError         0000000180011058     kernel32:KERNEL32.dll
 0002:00000060       __imp_ExitProcess          0000000180011060     kernel32:KERNEL32.dll
 0002:00000068       __imp_GetModuleHandleExW   0000000180011068     kernel32:KERNEL32.dll
 0002:00000070       __imp_GetProcAddress       0000000180011070     kernel32:KERNEL32.dll
 0002:00000078       __imp_MultiByteToWideChar  0000000180011078     kernel32:KERNEL32.dll
 0002:00000080       __imp_WideCharToMultiByte  0000000180011080     kernel32:KERNEL32.dll
 0002:00000088       __imp_HeapSize             0000000180011088     kernel32:KERNEL32.dll
 0002:00000090       __imp_HeapFree             0000000180011090     kernel32:KERNEL32.dll
 0002:00000098       __imp_HeapAlloc            0000000180011098     kernel32:KERNEL32.dll
 0002:000000a0       __imp_IsValidCodePage      00000001800110a0     kernel32:KERNEL32.dll
 0002:000000a8       __imp_GetACP               00000001800110a8     kernel32:KERNEL32.dll
 0002:000000b0       __imp_GetOEMCP             00000001800110b0     kernel32:KERNEL32.dll
 0002:000000b8       __imp_GetCPInfo            00000001800110b8     kernel32:KERNEL32.dll
 0002:000000c0       __imp_SetLastError         00000001800110c0     kernel32:KERNEL32.dll
 0002:000000c8       __imp_GetProcessHeap       00000001800110c8     kernel32:KERNEL32.dll
 0002:000000d0       __imp_GetStdHandle         00000001800110d0     kernel32:KERNEL32.dll
 0002:000000d8       __imp_GetFileType          00000001800110d8     kernel32:KERNEL32.dll
 0002:000000e0       __imp_DeleteCriticalSection 00000001800110e0     kernel32:KERNEL32.dll
 0002:000000e8       __imp_GetStartupInfoW      00000001800110e8     kernel32:KERNEL32.dll
 0002:000000f0       __imp_GetModuleFileNameA   00000001800110f0     kernel32:KERNEL32.dll
 0002:000000f8       __imp_QueryPerformanceCounter 00000001800110f8     kernel32:KERNEL32.dll
 0002:00000100       __imp_GetCurrentProcessId  0000000180011100     kernel32:KERNEL32.dll
 0002:00000108       __imp_GetSystemTimeAsFileTime 0000000180011108     kernel32:KERNEL32.dll
 0002:00000110       __imp_GetEnvironmentStringsW 0000000180011110     kernel32:KERNEL32.dll
 0002:00000118       __imp_FreeEnvironmentStringsW 0000000180011118     kernel32:KERNEL32.dll
 0002:00000120       __imp_RtlCaptureContext    0000000180011120     kernel32:KERNEL32.dll
 0002:00000128       __imp_RtlVirtualUnwind     0000000180011128     kernel32:KERNEL32.dll
 0002:00000130       __imp_UnhandledExceptionFilter 0000000180011130     kernel32:KERNEL32.dll
 0002:00000138       __imp_SetUnhandledExceptionFilter 0000000180011138     kernel32:KERNEL32.dll
 0002:00000140       __imp_InitializeCriticalSectionAndSpinCount 0000000180011140     kernel32:KERNEL32.dll
 0002:00000148       __imp_Sleep                0000000180011148     kernel32:KERNEL32.dll
 0002:00000150       __imp_GetCurrentProcess    0000000180011150     kernel32:KERNEL32.dll
 0002:00000158       __imp_TerminateProcess     0000000180011158     kernel32:KERNEL32.dll
 0002:00000160       __imp_TlsAlloc             0000000180011160     kernel32:KERNEL32.dll
 0002:00000168       __imp_TlsGetValue          0000000180011168     kernel32:KERNEL32.dll
 0002:00000170       __imp_TlsSetValue          0000000180011170     kernel32:KERNEL32.dll
 0002:00000178       __imp_TlsFree              0000000180011178     kernel32:KERNEL32.dll
 0002:00000180       __imp_GetModuleHandleW     0000000180011180     kernel32:KERNEL32.dll
 0002:00000188       __imp_EnterCriticalSection 0000000180011188     kernel32:KERNEL32.dll
 0002:00000190       __imp_LeaveCriticalSection 0000000180011190     kernel32:KERNEL32.dll
 0002:00000198       __imp_WriteFile            0000000180011198     kernel32:KERNEL32.dll
 0002:000001a0       __imp_GetModuleFileNameW   00000001800111a0     kernel32:KERNEL32.dll
 0002:000001a8       __imp_FreeLibrary          00000001800111a8     kernel32:KERNEL32.dll
 0002:000001b0       __imp_LoadLibraryExW       00000001800111b0     kernel32:KERNEL32.dll
 0002:000001b8       __imp_HeapReAlloc          00000001800111b8     kernel32:KERNEL32.dll
 0002:000001c0       __imp_LCMapStringW         00000001800111c0     kernel32:KERNEL32.dll
 0002:000001c8       __imp_GetConsoleCP         00000001800111c8     kernel32:KERNEL32.dll
 0002:000001d0       __imp_GetConsoleMode       00000001800111d0     kernel32:KERNEL32.dll
 0002:000001d8       __imp_SetFilePointerEx     00000001800111d8     kernel32:KERNEL32.dll
 0002:000001e0       __imp_GetStringTypeW       00000001800111e0     kernel32:KERNEL32.dll
 0002:000001e8       __imp_OutputDebugStringW   00000001800111e8     kernel32:KERNEL32.dll
 0002:000001f0       __imp_SetStdHandle         00000001800111f0     kernel32:KERNEL32.dll
 0002:000001f8       __imp_WriteConsoleW        00000001800111f8     kernel32:KERNEL32.dll
 0002:00000200       __imp_FlushFileBuffers     0000000180011200     kernel32:KERNEL32.dll
 0002:00000208       __imp_CreateFileW          0000000180011208     kernel32:KERNEL32.dll
 0002:00000210       __imp_CloseHandle          0000000180011210     kernel32:KERNEL32.dll
 0002:00000218       __imp_LoadLibraryExA       0000000180011218     kernel32:KERNEL32.dll
 0002:00000220       \177KERNEL32_NULL_THUNK_DATA 0000000180011220     kernel32:KERNEL32.dll
 0002:00000228       __xc_a                     0000000180011228     LIBCMT:crt0init.obj
 0002:00000240       _register_buffertools_     0000000180011240     buffertools.obj
 0002:00000248       __xc_z                     0000000180011248     LIBCMT:crt0init.obj
 0002:00000250       __xi_a                     0000000180011250     LIBCMT:crt0init.obj
 0002:00000278       __xi_z                     0000000180011278     LIBCMT:crt0init.obj
 0002:00000280       __xp_a                     0000000180011280     LIBCMT:crt0init.obj
 0002:000002a0       __xp_z                     00000001800112a0     LIBCMT:crt0init.obj
 0002:000002a8       __xt_a                     00000001800112a8     LIBCMT:crt0init.obj
 0002:000002b0       __xt_z                     00000001800112b0     LIBCMT:crt0init.obj
 0002:00000300       __sz_node_exe              0000000180011300     node:node.exe
 0002:00000cb0       ??_C@_0BC@CIJDGCDI@permission?5denied?$AA@ 0000000180011cb0     libcpmt:syserror.obj
 0002:00000cc8       ??_C@_0M@MIDIAGJP@file?5exists?$AA@ 0000000180011cc8     libcpmt:syserror.obj
 0002:00000cd8       ??_C@_0P@FDINDDOK@no?5such?5device?$AA@ 0000000180011cd8     libcpmt:syserror.obj
 0002:00000ce8       ??_C@_0BC@EJHOMAAK@filename?5too?5long?$AA@ 0000000180011ce8     libcpmt:syserror.obj
 0002:00000d00       ??_C@_0BI@NGCEHDD@device?5or?5resource?5busy?$AA@ 0000000180011d00     libcpmt:syserror.obj
 0002:00000d18       ??_C@_08GLNPIFBN@io?5error?$AA@ 0000000180011d18     libcpmt:syserror.obj
 0002:00000d28       ??_C@_0BE@JIDOCPHM@directory?5not?5empty?$AA@ 0000000180011d28     libcpmt:syserror.obj
 0002:00000d40       ??_C@_0BB@FCMFBGOM@invalid?5argument?$AA@ 0000000180011d40     libcpmt:syserror.obj
 0002:00000d58       ??_C@_0BD@IJDJKDEA@no?5space?5on?5device?$AA@ 0000000180011d58     libcpmt:syserror.obj
 0002:00000d70       ??_C@_0BK@NDOCBPGE@no?5such?5file?5or?5directory?$AA@ 0000000180011d70     libcpmt:syserror.obj
 0002:00000d90       ??_C@_0BH@KEFGLDAF@function?5not?5supported?$AA@ 0000000180011d90     libcpmt:syserror.obj
 0002:00000da8       ??_C@_0BC@NJECKMKE@no?5lock?5available?$AA@ 0000000180011da8     libcpmt:syserror.obj
 0002:00000dc0       ??_C@_0BC@ENOOLCNF@not?5enough?5memory?$AA@ 0000000180011dc0     libcpmt:syserror.obj
 0002:00000dd8       ??_C@_0BP@LKNGHENJ@resource?5unavailable?5try?5again?$AA@ 0000000180011dd8     libcpmt:syserror.obj
 0002:00000df8       ??_C@_0BC@PPHBOELF@cross?5device?5link?$AA@ 0000000180011df8     libcpmt:syserror.obj
 0002:00000e10       ??_C@_0BD@MOLBPMEA@operation?5canceled?$AA@ 0000000180011e10     libcpmt:syserror.obj
 0002:00000e28       ??_C@_0BE@GHAFMPAH@too?5many?5files?5open?$AA@ 0000000180011e28     libcpmt:syserror.obj
 0002:00000e40       ??_C@_0BC@FNODOBAE@permission_denied?$AA@ 0000000180011e40     libcpmt:syserror.obj
 0002:00000e58       ??_C@_0P@LNDJPBFK@address_in_use?$AA@ 0000000180011e58     libcpmt:syserror.obj
 0002:00000e68       ??_C@_0BG@IPMGOJF@address_not_available?$AA@ 0000000180011e68     libcpmt:syserror.obj
 0002:00000e80       ??_C@_0BN@LCBDHODA@address_family_not_supported?$AA@ 0000000180011e80     libcpmt:syserror.obj
 0002:00000ea0       ??_C@_0BP@FOJJHMCC@connection_already_in_progress?$AA@ 0000000180011ea0     libcpmt:syserror.obj
 0002:00000ec0       ??_C@_0BE@DLHHIBGN@bad_file_descriptor?$AA@ 0000000180011ec0     libcpmt:syserror.obj
 0002:00000ed8       ??_C@_0BD@OJMJDIGI@connection_aborted?$AA@ 0000000180011ed8     libcpmt:syserror.obj
 0002:00000ef0       ??_C@_0BD@NGKCIFEP@connection_refused?$AA@ 0000000180011ef0     libcpmt:syserror.obj
 0002:00000f08       ??_C@_0BB@JOANDNCK@connection_reset?$AA@ 0000000180011f08     libcpmt:syserror.obj
 0002:00000f20       ??_C@_0BN@JLJNLKLK@destination_address_required?$AA@ 0000000180011f20     libcpmt:syserror.obj
 0002:00000f40       ??_C@_0M@IJGMGFGP@bad_address?$AA@ 0000000180011f40     libcpmt:syserror.obj
 0002:00000f50       ??_C@_0BB@KKNHPPIN@host_unreachable?$AA@ 0000000180011f50     libcpmt:syserror.obj
 0002:00000f68       ??_C@_0BG@DJGBJIIK@operation_in_progress?$AA@ 0000000180011f68     libcpmt:syserror.obj
 0002:00000f80       ??_C@_0M@EGEKIIMP@interrupted?$AA@ 0000000180011f80     libcpmt:syserror.obj
 0002:00000f90       ??_C@_0BB@FFIHMIPJ@invalid_argument?$AA@ 0000000180011f90     libcpmt:syserror.obj
 0002:00000fa8       ??_C@_0BC@FIFLCHLO@already_connected?$AA@ 0000000180011fa8     libcpmt:syserror.obj
 0002:00000fc0       ??_C@_0BE@GJJJJDDA@too_many_files_open?$AA@ 0000000180011fc0     libcpmt:syserror.obj
 0002:00000fd8       ??_C@_0N@HPMLKHPL@message_size?$AA@ 0000000180011fd8     libcpmt:syserror.obj
 0002:00000fe8       ??_C@_0BC@LEEIKBAL@filename_too_long?$AA@ 0000000180011fe8     libcpmt:syserror.obj
 0002:00001000       ??_C@_0N@FCPALPJK@network_down?$AA@ 0000000180012000     libcpmt:syserror.obj
 0002:00001010       ??_C@_0O@EHNDLHIG@network_reset?$AA@ 0000000180012010     libcpmt:syserror.obj
 0002:00001020       ??_C@_0BE@JFNJIDNF@network_unreachable?$AA@ 0000000180012020     libcpmt:syserror.obj
 0002:00001038       ??_C@_0BA@FDIJKJCL@no_buffer_space?$AA@ 0000000180012038     libcpmt:syserror.obj
 0002:00001048       ??_C@_0BD@JHIHCGKP@no_protocol_option?$AA@ 0000000180012048     libcpmt:syserror.obj
 0002:00001060       ??_C@_0O@GBCLHHD@not_connected?$AA@ 0000000180012060     libcpmt:syserror.obj
 0002:00001070       ??_C@_0N@IMHKKLEM@not_a_socket?$AA@ 0000000180012070     libcpmt:syserror.obj
 0002:00001080       ??_C@_0BI@ICEIDKLJ@operation_not_supported?$AA@ 0000000180012080     libcpmt:syserror.obj
 0002:00001098       ??_C@_0BH@KAPBAIJF@protocol_not_supported?$AA@ 0000000180012098     libcpmt:syserror.obj
 0002:000010b0       ??_C@_0BE@GAOJJFPC@wrong_protocol_type?$AA@ 00000001800120b0     libcpmt:syserror.obj
 0002:000010c8       ??_C@_09NCHNLHPG@timed_out?$AA@ 00000001800120c8     libcpmt:syserror.obj
 0002:000010d8       ??_C@_0BG@GDGHKFDH@operation_would_block?$AA@ 00000001800120d8     libcpmt:syserror.obj
 0002:000010f0       ??_C@_0BN@LKKBCCDB@address?5family?5not?5supported?$AA@ 00000001800120f0     libcpmt:syserror.obj
 0002:00001110       ??_C@_0P@LDMLAFHI@address?5in?5use?$AA@ 0000000180012110     libcpmt:syserror.obj
 0002:00001120       ??_C@_0BG@DHPCNBJB@address?5not?5available?$AA@ 0000000180012120     libcpmt:syserror.obj
 0002:00001138       ??_C@_0BC@DFIBIBIL@already?5connected?$AA@ 0000000180012138     libcpmt:syserror.obj
 0002:00001150       ??_C@_0BH@CAKOHOMI@argument?5list?5too?5long?$AA@ 0000000180012150     libcpmt:syserror.obj
 0002:00001168       ??_C@_0BH@CGIMPKIM@argument?5out?5of?5domain?$AA@ 0000000180012168     libcpmt:syserror.obj
 0002:00001180       ??_C@_0M@KGHGGJGL@bad?5address?$AA@ 0000000180012180     libcpmt:syserror.obj
 0002:00001190       ??_C@_0BE@MPJPGCEO@bad?5file?5descriptor?$AA@ 0000000180012190     libcpmt:syserror.obj
 0002:000011a8       ??_C@_0M@PMMIEFCP@bad?5message?$AA@ 00000001800121a8     libcpmt:syserror.obj
 0002:000011b8       ??_C@_0M@KPHOFDBE@broken?5pipe?$AA@ 00000001800121b8     libcpmt:syserror.obj
 0002:000011c8       ??_C@_0BD@MGNDDEGM@connection?5aborted?$AA@ 00000001800121c8     libcpmt:syserror.obj
 0002:000011e0       ??_C@_0BP@KAIHPOGN@connection?5already?5in?5progress?$AA@ 00000001800121e0     libcpmt:syserror.obj
 0002:00001200       ??_C@_0BD@PJLIIJEL@connection?5refused?$AA@ 0000000180012200     libcpmt:syserror.obj
 0002:00001218       ??_C@_0BB@IECNJNOI@connection?5reset?$AA@ 0000000180012218     libcpmt:syserror.obj
 0002:00001230       ??_C@_0BN@KDMIFEIP@destination?5address?5required?$AA@ 0000000180012230     libcpmt:syserror.obj
 0002:00001250       ??_C@_0BI@BNCLIGPB@executable?5format?5error?$AA@ 0000000180012250     libcpmt:syserror.obj
 0002:00001268       ??_C@_0P@DNAJLBJK@file?5too?5large?$AA@ 0000000180012268     libcpmt:syserror.obj
 0002:00001278       ??_C@_0BB@DHFDFGDM@host?5unreachable?$AA@ 0000000180012278     libcpmt:syserror.obj
 0002:00001290       ??_C@_0BD@JPHBMONG@identifier?5removed?$AA@ 0000000180012290     libcpmt:syserror.obj
 0002:000012a8       ??_C@_0BG@CDNPAGJK@illegal?5byte?5sequence?$AA@ 00000001800122a8     libcpmt:syserror.obj
 0002:000012c0       ??_C@_0CD@BNPLBMNA@inappropriate?5io?5control?5operati@ 00000001800122c0     libcpmt:syserror.obj
 0002:000012e8       ??_C@_0N@OHAFKDEK@invalid?5seek?$AA@ 00000001800122e8     libcpmt:syserror.obj
 0002:000012f8       ??_C@_0P@FLLDBIDK@is?5a?5directory?$AA@ 00000001800122f8     libcpmt:syserror.obj
 0002:00001308       ??_C@_0N@IFLPBIOP@message?5size?$AA@ 0000000180012308     libcpmt:syserror.obj
 0002:00001318       ??_C@_0N@KIIEAAIO@network?5down?$AA@ 0000000180012318     libcpmt:syserror.obj
 0002:00001328       ??_C@_0O@FNPDBHEE@network?5reset?$AA@ 0000000180012328     libcpmt:syserror.obj
 0002:00001338       ??_C@_0BE@IFNCKGE@network?5unreachable?$AA@ 0000000180012338     libcpmt:syserror.obj
 0002:00001350       ??_C@_0BA@PFFCAOFK@no?5buffer?5space?$AA@ 0000000180012350     libcpmt:syserror.obj
 0002:00001360       ??_C@_0BB@IEPBLJHK@no?5child?5process?$AA@ 0000000180012360     libcpmt:syserror.obj
 0002:00001378       ??_C@_07PLECNNKG@no?5link?$AA@ 0000000180012378     libcpmt:syserror.obj
 0002:00001380       ??_C@_0BF@PBGGPKKE@no?5message?5available?$AA@ 0000000180012380     libcpmt:syserror.obj
 0002:00001398       ??_C@_0L@EDOLMPAK@no?5message?$AA@ 0000000180012398     libcpmt:syserror.obj
 0002:000013a8       ??_C@_0BD@EAMBFIDF@no?5protocol?5option?$AA@ 00000001800123a8     libcpmt:syserror.obj
 0002:000013c0       ??_C@_0BE@MKFDAFMP@no?5stream?5resources?$AA@ 00000001800123c0     libcpmt:syserror.obj
 0002:000013d8       ??_C@_0BK@IMCPHCBI@no?5such?5device?5or?5address?$AA@ 00000001800123d8     libcpmt:syserror.obj
 0002:000013f8       ??_C@_0BA@ENLPPKBN@no?5such?5process?$AA@ 00000001800123f8     libcpmt:syserror.obj
 0002:00001408       ??_C@_0BA@DOCPFFJG@not?5a?5directory?$AA@ 0000000180012408     libcpmt:syserror.obj
 0002:00001418       ??_C@_0N@POEIPGGF@not?5a?5socket?$AA@ 0000000180012418     libcpmt:syserror.obj
 0002:00001428       ??_C@_0N@LGAPMMPI@not?5a?5stream?$AA@ 0000000180012428     libcpmt:syserror.obj
 0002:00001438       ??_C@_0O@GLMIBBEG@not?5connected?$AA@ 0000000180012438     libcpmt:syserror.obj
 0002:00001448       ??_C@_0O@NHEDABJP@not?5supported?$AA@ 0000000180012448     libcpmt:syserror.obj
 0002:00001458       ??_C@_0BG@KDKHOPCO@operation?5in?5progress?$AA@ 0000000180012458     libcpmt:syserror.obj
 0002:00001470       ??_C@_0BI@OHIEJAAB@operation?5not?5permitted?$AA@ 0000000180012470     libcpmt:syserror.obj
 0002:00001488       ??_C@_0BI@LNEGIFLN@operation?5not?5supported?$AA@ 0000000180012488     libcpmt:syserror.obj
 0002:000014a0       ??_C@_0BG@OEMDKMEE@operation?5would?5block?$AA@ 00000001800124a0     libcpmt:syserror.obj
 0002:000014b8       ??_C@_0L@BLPOFLNJ@owner?5dead?$AA@ 00000001800124b8     libcpmt:syserror.obj
 0002:000014c8       ??_C@_0P@FNPOCJBE@protocol?5error?$AA@ 00000001800124c8     libcpmt:syserror.obj
 0002:000014d8       ??_C@_0BH@JPPPLHJB@protocol?5not?5supported?$AA@ 00000001800124d8     libcpmt:syserror.obj
 0002:000014f0       ??_C@_0BG@EICBIHDP@read?5only?5file?5system?$AA@ 00000001800124f0     libcpmt:syserror.obj
 0002:00001508       ??_C@_0BO@BJBOMOEJ@resource?5deadlock?5would?5occur?$AA@ 0000000180012508     libcpmt:syserror.obj
 0002:00001528       ??_C@_0BE@GOIPJJHG@result?5out?5of?5range?$AA@ 0000000180012528     libcpmt:syserror.obj
 0002:00001540       ??_C@_0BG@MPLKFPAE@state?5not?5recoverable?$AA@ 0000000180012540     libcpmt:syserror.obj
 0002:00001558       ??_C@_0P@DIIFGFCG@stream?5timeout?$AA@ 0000000180012558     libcpmt:syserror.obj
 0002:00001568       ??_C@_0P@IPFDMIFL@text?5file?5busy?$AA@ 0000000180012568     libcpmt:syserror.obj
 0002:00001578       ??_C@_09KJPPMAOI@timed?5out?$AA@ 0000000180012578     libcpmt:syserror.obj
 0002:00001588       ??_C@_0BO@HACHBEKI@too?5many?5files?5open?5in?5system?$AA@ 0000000180012588     libcpmt:syserror.obj
 0002:000015a8       ??_C@_0P@HCOMKFCC@too?5many?5links?$AA@ 00000001800125a8     libcpmt:syserror.obj
 0002:000015b8       ??_C@_0BO@EFGOJEF@too?5many?5symbolic?5link?5levels?$AA@ 00000001800125b8     libcpmt:syserror.obj
 0002:000015d8       ??_C@_0BA@KGKGOOJA@value?5too?5large?$AA@ 00000001800125d8     libcpmt:syserror.obj
 0002:000015e8       ??_C@_0BE@MIEJDDNH@wrong?5protocol?5type?$AA@ 00000001800125e8     libcpmt:syserror.obj
 0002:00001608       ??_7bad_alloc@std@@6B@     0000000180012608     libcpmt:xthrow.obj
 0002:00001618       ??_C@_0P@GHFPNOJB@bad?5allocation?$AA@ 0000000180012618     libcpmt:xthrow.obj
 0002:00001630       ??_7logic_error@std@@6B@   0000000180012630     libcpmt:xthrow.obj
 0002:00001648       ??_7length_error@std@@6B@  0000000180012648     libcpmt:xthrow.obj
 0002:00001658       ??_C@_06MEIMCGCF@_hypot?$AA@ 0000000180012658     LIBCMT:hypot.obj
 0002:00001660       _pDefaultRawDllMain        0000000180012660     LIBCMT:dllcrt0.obj
 0002:00001660       _pRawDllMain               0000000180012660     LIBCMT:dllcrt0.obj
 0002:000016b8       ??_7type_info@@6B@         00000001800126b8     LIBCMT:typinfo.obj
 0002:000016c0       _FPinit                    00000001800126c0     LIBCMT:fpinit.obj
 0002:000016d0       ??_7exception@std@@6B@     00000001800126d0     LIBCMT:stdexcpt.obj
 0002:000016e0       ??_C@_0BC@EOODALEL@Unknown?5exception?$AA@ 00000001800126e0     LIBCMT:stdexcpt.obj
 0002:00001708       ??_C@_1BI@BGOHAHKC@?$AAm?$AAs?$AAc?$AAo?$AAr?$AAe?$AAe?$AA?4?$AAd?$AAl?$AAl?$AA?$AA@ 0000000180012708     LIBCMT:crt0dat.obj
 0002:00001720       ??_C@_0P@MIGLKIOC@CorExitProcess?$AA@ 0000000180012720     LIBCMT:crt0dat.obj
 0002:00001730       ??_C@_06OJHGLDPL@?$CInull?$CJ?$AA@ 0000000180012730     LIBCMT:output.obj
 0002:00001738       ??_C@_1O@CEDCILHN@?$AA?$CI?$AAn?$AAu?$AAl?$AAl?$AA?$CJ?$AA?$AA@ 0000000180012738     LIBCMT:output.obj
 0002:00001750       __lookuptable              0000000180012750     LIBCMT:output.obj
 0002:000017b0       __lookuptable_s            00000001800127b0     LIBCMT:outputs.obj
 0002:00001830       ??_C@_1M@HPNHIDJI@?$AAj?$AAa?$AA?9?$AAJ?$AAP?$AA?$AA@ 0000000180012830     LIBCMT:mbctype.obj
 0002:00001840       ??_C@_1M@BIBDDEMK@?$AAz?$AAh?$AA?9?$AAC?$AAN?$AA?$AA@ 0000000180012840     LIBCMT:mbctype.obj
 0002:00001850       ??_C@_1M@JLOOOEGK@?$AAk?$AAo?$AA?9?$AAK?$AAR?$AA?$AA@ 0000000180012850     LIBCMT:mbctype.obj
 0002:00001860       ??_C@_1M@CLNBBOPM@?$AAz?$AAh?$AA?9?$AAT?$AAW?$AA?$AA@ 0000000180012860     LIBCMT:mbctype.obj
 0002:0000186c       ??_C@_03KOEHGMDN@Sun?$AA@  000000018001286c     LIBCMT:nlsdata.obj
 0002:00001870       ??_C@_03PDAGKDH@Mon?$AA@   0000000180012870     LIBCMT:nlsdata.obj
 0002:00001874       ??_C@_03NAGEINEP@Tue?$AA@  0000000180012874     LIBCMT:nlsdata.obj
 0002:00001878       ??_C@_03MHOMLAJA@Wed?$AA@  0000000180012878     LIBCMT:nlsdata.obj
 0002:0000187c       ??_C@_03IOFIKPDN@Thu?$AA@  000000018001287c     LIBCMT:nlsdata.obj
 0002:00001880       ??_C@_03IDIOELNC@Fri?$AA@  0000000180012880     LIBCMT:nlsdata.obj
 0002:00001884       ??_C@_03FEFJNEK@Sat?$AA@   0000000180012884     LIBCMT:nlsdata.obj
 0002:00001888       ??_C@_06OOPIFAJ@Sunday?$AA@ 0000000180012888     LIBCMT:nlsdata.obj
 0002:00001890       ??_C@_06JLEDEDGH@Monday?$AA@ 0000000180012890     LIBCMT:nlsdata.obj
 0002:00001898       ??_C@_07BAAGCFCM@Tuesday?$AA@ 0000000180012898     LIBCMT:nlsdata.obj
 0002:000018a0       ??_C@_09DLIGFAKA@Wednesday?$AA@ 00000001800128a0     LIBCMT:nlsdata.obj
 0002:000018b0       ??_C@_08HACCIKIA@Thursday?$AA@ 00000001800128b0     LIBCMT:nlsdata.obj
 0002:000018bc       ??_C@_06JECMNKMI@Friday?$AA@ 00000001800128bc     LIBCMT:nlsdata.obj
 0002:000018c8       ??_C@_08INBOOONO@Saturday?$AA@ 00000001800128c8     LIBCMT:nlsdata.obj
 0002:000018d4       ??_C@_03JIHJHPIE@Jan?$AA@  00000001800128d4     LIBCMT:nlsdata.obj
 0002:000018d8       ??_C@_03HJBDCHOM@Feb?$AA@  00000001800128d8     LIBCMT:nlsdata.obj
 0002:000018dc       ??_C@_03ODNJBKGA@Mar?$AA@  00000001800128dc     LIBCMT:nlsdata.obj
 0002:000018e0       ??_C@_03LEOLGMJP@Apr?$AA@  00000001800128e0     LIBCMT:nlsdata.obj
 0002:000018e4       ??_C@_03CNMDKL@May?$AA@    00000001800128e4     LIBCMT:nlsdata.obj
 0002:000018e8       ??_C@_03IDFGHECI@Jun?$AA@  00000001800128e8     LIBCMT:nlsdata.obj
 0002:000018ec       ??_C@_03LBGABGKK@Jul?$AA@  00000001800128ec     LIBCMT:nlsdata.obj
 0002:000018f0       ??_C@_03IFJFEIGA@Aug?$AA@  00000001800128f0     LIBCMT:nlsdata.obj
 0002:000018f4       ??_C@_03GGCAPAJC@Sep?$AA@  00000001800128f4     LIBCMT:nlsdata.obj
 0002:000018f8       ??_C@_03BMAOKBAD@Oct?$AA@  00000001800128f8     LIBCMT:nlsdata.obj
 0002:000018fc       ??_C@_03JPJOFNIA@Nov?$AA@  00000001800128fc     LIBCMT:nlsdata.obj
 0002:00001900       ??_C@_03MKABNOCG@Dec?$AA@  0000000180012900     LIBCMT:nlsdata.obj
 0002:00001908       ??_C@_07CGJPFGJA@January?$AA@ 0000000180012908     LIBCMT:nlsdata.obj
 0002:00001910       ??_C@_08GNJGEPFN@February?$AA@ 0000000180012910     LIBCMT:nlsdata.obj
 0002:0000191c       ??_C@_05HPCKOFNC@March?$AA@ 000000018001291c     LIBCMT:nlsdata.obj
 0002:00001924       ??_C@_05DMJDNLEJ@April?$AA@ 0000000180012924     LIBCMT:nlsdata.obj
 0002:0000192c       ??_C@_04CNLMGBGM@June?$AA@ 000000018001292c     LIBCMT:nlsdata.obj
 0002:00001934       ??_C@_04MIEPOIFP@July?$AA@ 0000000180012934     LIBCMT:nlsdata.obj
 0002:0000193c       ??_C@_06LBBHFDDG@August?$AA@ 000000018001293c     LIBCMT:nlsdata.obj
 0002:00001948       ??_C@_09BHHEALKD@September?$AA@ 0000000180012948     LIBCMT:nlsdata.obj
 0002:00001958       ??_C@_07JJNFCEND@October?$AA@ 0000000180012958     LIBCMT:nlsdata.obj
 0002:00001960       ??_C@_08HCHEGEOA@November?$AA@ 0000000180012960     LIBCMT:nlsdata.obj
 0002:00001970       ??_C@_08EDHMEBNP@December?$AA@ 0000000180012970     LIBCMT:nlsdata.obj
 0002:0000197c       ??_C@_02DEDBPAFC@AM?$AA@   000000018001297c     LIBCMT:nlsdata.obj
 0002:00001980       ??_C@_02CJNFDJBF@PM?$AA@   0000000180012980     LIBCMT:nlsdata.obj
 0002:00001988       ??_C@_08BPBNCDIB@MM?1dd?1yy?$AA@ 0000000180012988     LIBCMT:nlsdata.obj
 0002:00001998       ??_C@_0BE@CKGJFCPC@dddd?0?5MMMM?5dd?0?5yyyy?$AA@ 0000000180012998     LIBCMT:nlsdata.obj
 0002:000019b0       ??_C@_08JCCMCCIL@HH?3mm?3ss?$AA@ 00000001800129b0     LIBCMT:nlsdata.obj
 0002:000019c0       ??_C@_17MBGCMIPB@?$AAS?$AAu?$AAn?$AA?$AA@ 00000001800129c0     LIBCMT:nlsdata.obj
 0002:000019c8       ??_C@_17KBOMKBF@?$AAM?$AAo?$AAn?$AA?$AA@ 00000001800129c8     LIBCMT:nlsdata.obj
 0002:000019d0       ??_C@_17BMKGEGOJ@?$AAT?$AAu?$AAe?$AA?$AA@ 00000001800129d0     LIBCMT:nlsdata.obj
 0002:000019d8       ??_C@_17CJEDCEPE@?$AAW?$AAe?$AAd?$AA?$AA@ 00000001800129d8     LIBCMT:nlsdata.obj
 0002:000019e0       ??_C@_17PDPHAADD@?$AAT?$AAh?$AAu?$AA?$AA@ 00000001800129e0     LIBCMT:nlsdata.obj
 0002:000019e8       ??_C@_17HFOLPPLP@?$AAF?$AAr?$AAi?$AA?$AA@ 00000001800129e8     LIBCMT:nlsdata.obj
 0002:000019f0       ??_C@_17GGIBDPIH@?$AAS?$AAa?$AAt?$AA?$AA@ 00000001800129f0     LIBCMT:nlsdata.obj
 0002:000019f8       ??_C@_1O@IHNHDHPB@?$AAS?$AAu?$AAn?$AAd?$AAa?$AAy?$AA?$AA@ 00000001800129f8     LIBCMT:nlsdata.obj
 0002:00001a08       ??_C@_1O@MMNBFLIA@?$AAM?$AAo?$AAn?$AAd?$AAa?$AAy?$AA?$AA@ 0000000180012a08     LIBCMT:nlsdata.obj
 0002:00001a18       ??_C@_1BA@ENFBFFEK@?$AAT?$AAu?$AAe?$AAs?$AAd?$AAa?$AAy?$AA?$AA@ 0000000180012a18     LIBCMT:nlsdata.obj
 0002:00001a28       ??_C@_1BE@EBOGMDOH@?$AAW?$AAe?$AAd?$AAn?$AAe?$AAs?$AAd?$AAa?$AAy?$AA?$AA@ 0000000180012a28     LIBCMT:nlsdata.obj
 0002:00001a40       ??_C@_1BC@HHMNLIHE@?$AAT?$AAh?$AAu?$AAr?$AAs?$AAd?$AAa?$AAy?$AA?$AA@ 0000000180012a40     LIBCMT:nlsdata.obj
 0002:00001a58       ??_C@_1O@PDICJHAG@?$AAF?$AAr?$AAi?$AAd?$AAa?$AAy?$AA?$AA@ 0000000180012a58     LIBCMT:nlsdata.obj
 0002:00001a68       ??_C@_1BC@ENMNNPAJ@?$AAS?$AAa?$AAt?$AAu?$AAr?$AAd?$AAa?$AAy?$AA?$AA@ 0000000180012a68     LIBCMT:nlsdata.obj
 0002:00001a80       ??_C@_17DKNBKCHM@?$AAJ?$AAa?$AAn?$AA?$AA@ 0000000180012a80     LIBCMT:nlsdata.obj
 0002:00001a88       ??_C@_17LMDJEKJN@?$AAF?$AAe?$AAb?$AA?$AA@ 0000000180012a88     LIBCMT:nlsdata.obj
 0002:00001a90       ??_C@_17CKNLEDEC@?$AAM?$AAa?$AAr?$AA?$AA@ 0000000180012a90     LIBCMT:nlsdata.obj
 0002:00001a98       ??_C@_17LFPOIHDD@?$AAA?$AAp?$AAr?$AA?$AA@ 0000000180012a98     LIBCMT:nlsdata.obj
 0002:00001aa0       ??_C@_17PNNKMEED@?$AAM?$AAa?$AAy?$AA?$AA@ 0000000180012aa0     LIBCMT:nlsdata.obj
 0002:00001aa8       ??_C@_17KCJGOCPB@?$AAJ?$AAu?$AAn?$AA?$AA@ 0000000180012aa8     LIBCMT:nlsdata.obj
 0002:00001ab0       ??_C@_17IJPCKHK@?$AAJ?$AAu?$AAl?$AA?$AA@ 0000000180012ab0     LIBCMT:nlsdata.obj
 0002:00001ab8       ??_C@_17ICPELBCN@?$AAA?$AAu?$AAg?$AA?$AA@ 0000000180012ab8     LIBCMT:nlsdata.obj
 0002:00001ac0       ??_C@_17HCHCOKMG@?$AAS?$AAe?$AAp?$AA?$AA@ 0000000180012ac0     LIBCMT:nlsdata.obj
 0002:00001ac8       ??_C@_17FNLKOI@?$AAO?$AAc?$AAt?$AA?$AA@ 0000000180012ac8     LIBCMT:nlsdata.obj
 0002:00001ad0       ??_C@_17BBDMLCIG@?$AAN?$AAo?$AAv?$AA?$AA@ 0000000180012ad0     LIBCMT:nlsdata.obj
 0002:00001ad8       ??_C@_17EGKACKIF@?$AAD?$AAe?$AAc?$AA?$AA@ 0000000180012ad8     LIBCMT:nlsdata.obj
 0002:00001ae0       ??_C@_1BA@EFMEIEBA@?$AAJ?$AAa?$AAn?$AAu?$AAa?$AAr?$AAy?$AA?$AA@ 0000000180012ae0     LIBCMT:nlsdata.obj
 0002:00001af0       ??_C@_1BC@JGDDFFAM@?$AAF?$AAe?$AAb?$AAr?$AAu?$AAa?$AAr?$AAy?$AA?$AA@ 0000000180012af0     LIBCMT:nlsdata.obj
 0002:00001b08       ??_C@_1M@IKEENEDF@?$AAM?$AAa?$AAr?$AAc?$AAh?$AA?$AA@ 0000000180012b08     LIBCMT:nlsdata.obj
 0002:00001b18       ??_C@_1M@GJNLMHFD@?$AAA?$AAp?$AAr?$AAi?$AAl?$AA?$AA@ 0000000180012b18     LIBCMT:nlsdata.obj
 0002:00001b28       ??_C@_19EPFLPGAP@?$AAJ?$AAu?$AAn?$AAe?$AA?$AA@ 0000000180012b28     LIBCMT:nlsdata.obj
 0002:00001b38       ??_C@_19BIFMLPCD@?$AAJ?$AAu?$AAl?$AAy?$AA?$AA@ 0000000180012b38     LIBCMT:nlsdata.obj
 0002:00001b48       ??_C@_1O@PAHLKOAC@?$AAA?$AAu?$AAg?$AAu?$AAs?$AAt?$AA?$AA@ 0000000180012b48     LIBCMT:nlsdata.obj
 0002:00001b58       ??_C@_1BE@DKAAMBJL@?$AAS?$AAe?$AAp?$AAt?$AAe?$AAm?$AAb?$AAe?$AAr?$AA?$AA@ 0000000180012b58     LIBCMT:nlsdata.obj
 0002:00001b70       ??_C@_1BA@EPANDLNG@?$AAO?$AAc?$AAt?$AAo?$AAb?$AAe?$AAr?$AA?$AA@ 0000000180012b70     LIBCMT:nlsdata.obj
 0002:00001b80       ??_C@_1BC@BGLIFPF@?$AAN?$AAo?$AAv?$AAe?$AAm?$AAb?$AAe?$AAr?$AA?$AA@ 0000000180012b80     LIBCMT:nlsdata.obj
 0002:00001b98       ??_C@_1BC@FEMKIFH@?$AAD?$AAe?$AAc?$AAe?$AAm?$AAb?$AAe?$AAr?$AA?$AA@ 0000000180012b98     LIBCMT:nlsdata.obj
 0002:00001bac       ??_C@_15ODEHAHHF@?$AAA?$AAM?$AA?$AA@ 0000000180012bac     LIBCMT:nlsdata.obj
 0002:00001bb4       ??_C@_15CLMNNGEL@?$AAP?$AAM?$AA?$AA@ 0000000180012bb4     LIBCMT:nlsdata.obj
 0002:00001bc0       ??_C@_1BC@IEBCMHCM@?$AAM?$AAM?$AA?1?$AAd?$AAd?$AA?1?$AAy?$AAy?$AA?$AA@ 0000000180012bc0     LIBCMT:nlsdata.obj
 0002:00001bd8       ??_C@_1CI@KNAKOEBC@?$AAd?$AAd?$AAd?$AAd?$AA?0?$AA?5?$AAM?$AAM?$AAM?$AAM?$AA?5?$AAd?$AAd?$AA?0?$AA?5?$AAy?$AAy?$AAy?$AAy?$AA?$AA@ 0000000180012bd8     LIBCMT:nlsdata.obj
 0002:00001c00       ??_C@_1BC@GDGBMEMK@?$AAH?$AAH?$AA?3?$AAm?$AAm?$AA?3?$AAs?$AAs?$AA?$AA@ 0000000180012c00     LIBCMT:nlsdata.obj
 0002:00001c18       ??_C@_1M@BMHNFIME@?$AAe?$AAn?$AA?9?$AAU?$AAS?$AA?$AA@ 0000000180012c18     LIBCMT:nlsdata.obj
 0002:00001cb0       _XcptActTab                0000000180012cb0     LIBCMT:winxfltr.obj
 0002:00001d70       _XcptActTabCount           0000000180012d70     LIBCMT:winxfltr.obj
 0002:00001d74       _XcptActTabSize            0000000180012d74     LIBCMT:winxfltr.obj
 0002:00001d78       _First_FPE_Indx            0000000180012d78     LIBCMT:winxfltr.obj
 0002:00001d7c       _Num_FPE                   0000000180012d7c     LIBCMT:winxfltr.obj
 0002:00001d80       ??_C@_1BK@MGMFAEKH@?$AAk?$AAe?$AAr?$AAn?$AAe?$AAl?$AA3?$AA2?$AA?4?$AAd?$AAl?$AAl?$AA?$AA@ 0000000180012d80     LIBCMT:winapisupp.obj
 0002:00001da0       ??_C@_08KNHFBNJ@FlsAlloc?$AA@ 0000000180012da0     LIBCMT:winapisupp.obj
 0002:00001db0       ??_C@_07PEJMOBNF@FlsFree?$AA@ 0000000180012db0     LIBCMT:winapisupp.obj
 0002:00001db8       ??_C@_0M@GDNOONDI@FlsGetValue?$AA@ 0000000180012db8     LIBCMT:winapisupp.obj
 0002:00001dc8       ??_C@_0M@JCPCPOEF@FlsSetValue?$AA@ 0000000180012dc8     LIBCMT:winapisupp.obj
 0002:00001dd8       ??_C@_0BM@HCFOFFN@InitializeCriticalSectionEx?$AA@ 0000000180012dd8     LIBCMT:winapisupp.obj
 0002:00001df8       ??_C@_0P@DLHPPCNH@CreateEventExW?$AA@ 0000000180012df8     LIBCMT:winapisupp.obj
 0002:00001e08       ??_C@_0BD@KIEEOEEH@CreateSemaphoreExW?$AA@ 0000000180012e08     LIBCMT:winapisupp.obj
 0002:00001e20       ??_C@_0BI@BKLFFAPO@SetThreadStackGuarantee?$AA@ 0000000180012e20     LIBCMT:winapisupp.obj
 0002:00001e38       ??_C@_0BG@OGFAJCKC@CreateThreadpoolTimer?$AA@ 0000000180012e38     LIBCMT:winapisupp.obj
 0002:00001e50       ??_C@_0BD@LPLEMMDI@SetThreadpoolTimer?$AA@ 0000000180012e50     LIBCMT:winapisupp.obj
 0002:00001e68       ??_C@_0CA@FMNJENH@WaitForThreadpoolTimerCallbacks?$AA@ 0000000180012e68     LIBCMT:winapisupp.obj
 0002:00001e88       ??_C@_0BF@DCFCCNOC@CloseThreadpoolTimer?$AA@ 0000000180012e88     LIBCMT:winapisupp.obj
 0002:00001ea0       ??_C@_0BF@FLABGKKM@CreateThreadpoolWait?$AA@ 0000000180012ea0     LIBCMT:winapisupp.obj
 0002:00001eb8       ??_C@_0BC@MGCOHNA@SetThreadpoolWait?$AA@ 0000000180012eb8     LIBCMT:winapisupp.obj
 0002:00001ed0       ??_C@_0BE@OCIOMIMP@CloseThreadpoolWait?$AA@ 0000000180012ed0     LIBCMT:winapisupp.obj
 0002:00001ee8       ??_C@_0BJ@LKGHFHBO@FlushProcessWriteBuffers?$AA@ 0000000180012ee8     LIBCMT:winapisupp.obj
 0002:00001f08       ??_C@_0BP@KALKKPMO@FreeLibraryWhenCallbackReturns?$AA@ 0000000180012f08     LIBCMT:winapisupp.obj
 0002:00001f28       ??_C@_0BK@DFNBACLA@GetCurrentProcessorNumber?$AA@ 0000000180012f28     LIBCMT:winapisupp.obj
 0002:00001f48       ??_C@_0BP@KHGALBC@GetLogicalProcessorInformation?$AA@ 0000000180012f48     LIBCMT:winapisupp.obj
 0002:00001f68       ??_C@_0BE@FKKLLFLM@CreateSymbolicLinkW?$AA@ 0000000180012f68     LIBCMT:winapisupp.obj
 0002:00001f80       ??_C@_0BJ@OHNKDLIJ@SetDefaultDllDirectories?$AA@ 0000000180012f80     LIBCMT:winapisupp.obj
 0002:00001fa0       ??_C@_0BE@LJANKFHF@EnumSystemLocalesEx?$AA@ 0000000180012fa0     LIBCMT:winapisupp.obj
 0002:00001fb8       ??_C@_0BA@IHGNDAEB@CompareStringEx?$AA@ 0000000180012fb8     LIBCMT:winapisupp.obj
 0002:00001fc8       ??_C@_0BA@EPCJIIPD@GetDateFormatEx?$AA@ 0000000180012fc8     LIBCMT:winapisupp.obj
 0002:00001fd8       ??_C@_0BA@ONOKGCMP@GetLocaleInfoEx?$AA@ 0000000180012fd8     LIBCMT:winapisupp.obj
 0002:00001fe8       ??_C@_0BA@CIJJKCJJ@GetTimeFormatEx?$AA@ 0000000180012fe8     LIBCMT:winapisupp.obj
 0002:00001ff8       ??_C@_0BJ@PBCCBIPI@GetUserDefaultLocaleName?$AA@ 0000000180012ff8     LIBCMT:winapisupp.obj
 0002:00002018       ??_C@_0BC@CELBKLLA@IsValidLocaleName?$AA@ 0000000180013018     LIBCMT:winapisupp.obj
 0002:00002030       ??_C@_0O@KKBNKAPF@LCMapStringEx?$AA@ 0000000180013030     LIBCMT:winapisupp.obj
 0002:00002040       ??_C@_0BE@JOGNEJCI@GetCurrentPackageId?$AA@ 0000000180013040     LIBCMT:winapisupp.obj
 0002:00002058       ??_C@_0P@CDHHOHKP@GetTickCount64?$AA@ 0000000180013058     LIBCMT:winapisupp.obj
 0002:00002068       ??_C@_0BO@KPCLFDJJ@GetFileInformationByHandleExW?$AA@ 0000000180013068     LIBCMT:winapisupp.obj
 0002:00002088       ??_C@_0BM@MHIDLABK@SetFileInformationByHandleW?$AA@ 0000000180013088     LIBCMT:winapisupp.obj
 0002:000020a8       _pDestructExceptionObject  00000001800130a8     LIBCMT:frame.obj
 0002:000020b0       ??_C@_05KLBDPFGC@e?$CL000?$AA@ 00000001800130b0     LIBCMT:cvt.obj
 0002:000020b8       __real@0000000000000000    00000001800130b8     LIBCMT:cvt.obj
 0002:00002230       ??_C@_1FK@PGACCAFB@?$AAR?$AA6?$AA0?$AA0?$AA2?$AA?$AN?$AA?6?$AA?9?$AA?5?$AAf?$AAl?$AAo?$AAa?$AAt?$AAi?$AAn?$AAg?$AA?5?$AAp?$AAo?$AAi?$AAn?$AAt?$AA?5?$AAs?$AAu?$AAp?$AAp?$AAo?$AAr?$AAt?$AA?5@ 0000000180013230     LIBCMT:crt0msg.obj
 0002:00002290       ??_C@_1FE@LLNEDJMD@?$AAR?$AA6?$AA0?$AA0?$AA8?$AA?$AN?$AA?6?$AA?9?$AA?5?$AAn?$AAo?$AAt?$AA?5?$AAe?$AAn?$AAo?$AAu?$AAg?$AAh?$AA?5?$AAs?$AAp?$AAa?$AAc?$AAe?$AA?5?$AAf?$AAo?$AAr?$AA?5?$AAa?$AAr@ 0000000180013290     LIBCMT:crt0msg.obj
 0002:000022f0       ??_C@_1FI@HONFMGBI@?$AAR?$AA6?$AA0?$AA0?$AA9?$AA?$AN?$AA?6?$AA?9?$AA?5?$AAn?$AAo?$AAt?$AA?5?$AAe?$AAn?$AAo?$AAu?$AAg?$AAh?$AA?5?$AAs?$AAp?$AAa?$AAc?$AAe?$AA?5?$AAf?$AAo?$AAr?$AA?5?$AAe?$AAn@ 00000001800132f0     LIBCMT:crt0msg.obj
 0002:00002350       ??_C@_1EG@BEHAGFJD@?$AAR?$AA6?$AA0?$AA1?$AA0?$AA?$AN?$AA?6?$AA?9?$AA?5?$AAa?$AAb?$AAo?$AAr?$AAt?$AA?$CI?$AA?$CJ?$AA?5?$AAh?$AAa?$AAs?$AA?5?$AAb?$AAe?$AAe?$AAn?$AA?5?$AAc?$AAa?$AAl?$AAl?$AAe?$AAd@ 0000000180013350     LIBCMT:crt0msg.obj
 0002:000023a0       ??_C@_1FI@LOGNIKDM@?$AAR?$AA6?$AA0?$AA1?$AA6?$AA?$AN?$AA?6?$AA?9?$AA?5?$AAn?$AAo?$AAt?$AA?5?$AAe?$AAn?$AAo?$AAu?$AAg?$AAh?$AA?5?$AAs?$AAp?$AAa?$AAc?$AAe?$AA?5?$AAf?$AAo?$AAr?$AA?5?$AAt?$AAh@ 00000001800133a0     LIBCMT:crt0msg.obj
 0002:00002400       ??_C@_1FK@BEOGODMC@?$AAR?$AA6?$AA0?$AA1?$AA7?$AA?$AN?$AA?6?$AA?9?$AA?5?$AAu?$AAn?$AAe?$AAx?$AAp?$AAe?$AAc?$AAt?$AAe?$AAd?$AA?5?$AAm?$AAu?$AAl?$AAt?$AAi?$AAt?$AAh?$AAr?$AAe?$AAa?$AAd?$AA?5@ 0000000180013400     LIBCMT:crt0msg.obj
 0002:00002460       ??_C@_1EC@JIBHAOPH@?$AAR?$AA6?$AA0?$AA1?$AA8?$AA?$AN?$AA?6?$AA?9?$AA?5?$AAu?$AAn?$AAe?$AAx?$AAp?$AAe?$AAc?$AAt?$AAe?$AAd?$AA?5?$AAh?$AAe?$AAa?$AAp?$AA?5?$AAe?$AAr?$AAr?$AAo?$AAr?$AA?$AN?$AA?6@ 0000000180013460     LIBCMT:crt0msg.obj
 0002:000024b0       ??_C@_1FC@ECHBIFBC@?$AAR?$AA6?$AA0?$AA1?$AA9?$AA?$AN?$AA?6?$AA?9?$AA?5?$AAu?$AAn?$AAa?$AAb?$AAl?$AAe?$AA?5?$AAt?$AAo?$AA?5?$AAo?$AAp?$AAe?$AAn?$AA?5?$AAc?$AAo?$AAn?$AAs?$AAo?$AAl?$AAe?$AA?5@ 00000001800134b0     LIBCMT:crt0msg.obj
 0002:00002510       ??_C@_1GK@FHCKBEFA@?$AAR?$AA6?$AA0?$AA2?$AA4?$AA?$AN?$AA?6?$AA?9?$AA?5?$AAn?$AAo?$AAt?$AA?5?$AAe?$AAn?$AAo?$AAu?$AAg?$AAh?$AA?5?$AAs?$AAp?$AAa?$AAc?$AAe?$AA?5?$AAf?$AAo?$AAr?$AA?5?$AA_?$AAo@ 0000000180013510     LIBCMT:crt0msg.obj
 0002:00002580       ??_C@_1EM@MAADIHMB@?$AAR?$AA6?$AA0?$AA2?$AA5?$AA?$AN?$AA?6?$AA?9?$AA?5?$AAp?$AAu?$AAr?$AAe?$AA?5?$AAv?$AAi?$AAr?$AAt?$AAu?$AAa?$AAl?$AA?5?$AAf?$AAu?$AAn?$AAc?$AAt?$AAi?$AAo?$AAn?$AA?5?$AAc@ 0000000180013580     LIBCMT:crt0msg.obj
 0002:000025d0       ??_C@_1GK@MCAAGJMO@?$AAR?$AA6?$AA0?$AA2?$AA6?$AA?$AN?$AA?6?$AA?9?$AA?5?$AAn?$AAo?$AAt?$AA?5?$AAe?$AAn?$AAo?$AAu?$AAg?$AAh?$AA?5?$AAs?$AAp?$AAa?$AAc?$AAe?$AA?5?$AAf?$AAo?$AAr?$AA?5?$AAs?$AAt@ 00000001800135d0     LIBCMT:crt0msg.obj
 0002:00002640       ??_C@_1GK@MFGOKLAG@?$AAR?$AA6?$AA0?$AA2?$AA7?$AA?$AN?$AA?6?$AA?9?$AA?5?$AAn?$AAo?$AAt?$AA?5?$AAe?$AAn?$AAo?$AAu?$AAg?$AAh?$AA?5?$AAs?$AAp?$AAa?$AAc?$AAe?$AA?5?$AAf?$AAo?$AAr?$AA?5?$AAl?$AAo@ 0000000180013640     LIBCMT:crt0msg.obj
 0002:000026b0       ??_C@_1EK@HHFLMAOL@?$AAR?$AA6?$AA0?$AA2?$AA8?$AA?$AN?$AA?6?$AA?9?$AA?5?$AAu?$AAn?$AAa?$AAb?$AAl?$AAe?$AA?5?$AAt?$AAo?$AA?5?$AAi?$AAn?$AAi?$AAt?$AAi?$AAa?$AAl?$AAi?$AAz?$AAe?$AA?5?$AAh?$AAe@ 00000001800136b0     LIBCMT:crt0msg.obj
 0002:00002700       ??_C@_1DO@BMFCDCD@?$AAR?$AA6?$AA0?$AA3?$AA0?$AA?$AN?$AA?6?$AA?9?$AA?5?$AAC?$AAR?$AAT?$AA?5?$AAn?$AAo?$AAt?$AA?5?$AAi?$AAn?$AAi?$AAt?$AAi?$AAa?$AAl?$AAi?$AAz?$AAe?$AAd?$AA?$AN?$AA?6?$AA?$AA@ 0000000180013700     LIBCMT:crt0msg.obj
 0002:00002740       ??_C@_1MG@ENCOOIDF@?$AAR?$AA6?$AA0?$AA3?$AA1?$AA?$AN?$AA?6?$AA?9?$AA?5?$AAA?$AAt?$AAt?$AAe?$AAm?$AAp?$AAt?$AA?5?$AAt?$AAo?$AA?5?$AAi?$AAn?$AAi?$AAt?$AAi?$AAa?$AAl?$AAi?$AAz?$AAe?$AA?5?$AAt@ 0000000180013740     LIBCMT:crt0msg.obj
 0002:00002810       ??_C@_1GG@GOPILAJP@?$AAR?$AA6?$AA0?$AA3?$AA2?$AA?$AN?$AA?6?$AA?9?$AA?5?$AAn?$AAo?$AAt?$AA?5?$AAe?$AAn?$AAo?$AAu?$AAg?$AAh?$AA?5?$AAs?$AAp?$AAa?$AAc?$AAe?$AA?5?$AAf?$AAo?$AAr?$AA?5?$AAl?$AAo@ 0000000180013810     LIBCMT:crt0msg.obj
 0002:00002880       ??_C@_1BOO@KGEDBGAJ@?$AAR?$AA6?$AA0?$AA3?$AA3?$AA?$AN?$AA?6?$AA?9?$AA?5?$AAA?$AAt?$AAt?$AAe?$AAm?$AAp?$AAt?$AA?5?$AAt?$AAo?$AA?5?$AAu?$AAs?$AAe?$AA?5?$AAM?$AAS?$AAI?$AAL?$AA?5?$AAc?$AAo?$AAd@ 0000000180013880     LIBCMT:crt0msg.obj
 0002:00002a70       ??_C@_1GG@MKFPEKFO@?$AAR?$AA6?$AA0?$AA3?$AA4?$AA?$AN?$AA?6?$AA?9?$AA?5?$AAi?$AAn?$AAc?$AAo?$AAn?$AAs?$AAi?$AAs?$AAt?$AAe?$AAn?$AAt?$AA?5?$AAo?$AAn?$AAe?$AAx?$AAi?$AAt?$AA?5?$AAb?$AAe?$AAg@ 0000000180013a70     LIBCMT:crt0msg.obj
 0002:00002ad8       ??_C@_1BO@BFCDCGC@?$AAD?$AAO?$AAM?$AAA?$AAI?$AAN?$AA?5?$AAe?$AAr?$AAr?$AAo?$AAr?$AA?$AN?$AA?6?$AA?$AA@ 0000000180013ad8     LIBCMT:crt0msg.obj
 0002:00002af8       ??_C@_1BK@KMOMNAAI@?$AAS?$AAI?$AAN?$AAG?$AA?5?$AAe?$AAr?$AAr?$AAo?$AAr?$AA?$AN?$AA?6?$AA?$AA@ 0000000180013af8     LIBCMT:crt0msg.obj
 0002:00002b18       ??_C@_1BM@JBBEPPHI@?$AAT?$AAL?$AAO?$AAS?$AAS?$AA?5?$AAe?$AAr?$AAr?$AAo?$AAr?$AA?$AN?$AA?6?$AA?$AA@ 0000000180013b18     LIBCMT:crt0msg.obj
 0002:00002b34       ??_C@_15JNBOKNOG@?$AA?$AN?$AA?6?$AA?$AA@ 0000000180013b34     LIBCMT:crt0msg.obj
 0002:00002b40       ??_C@_1BO@BKOMIGKJ@?$AAr?$AAu?$AAn?$AAt?$AAi?$AAm?$AAe?$AA?5?$AAe?$AAr?$AAr?$AAo?$AAr?$AA?5?$AA?$AA@ 0000000180013b40     LIBCMT:crt0msg.obj
 0002:00002b60       ??_C@_1DE@JNGNBFGO@?$AAR?$AAu?$AAn?$AAt?$AAi?$AAm?$AAe?$AA?5?$AAE?$AAr?$AAr?$AAo?$AAr?$AA?$CB?$AA?6?$AA?6?$AAP?$AAr?$AAo?$AAg?$AAr?$AAa?$AAm?$AA?3?$AA?5?$AA?$AA@ 0000000180013b60     LIBCMT:crt0msg.obj
 0002:00002b98       ??_C@_1CO@EAEJAADC@?$AA?$DM?$AAp?$AAr?$AAo?$AAg?$AAr?$AAa?$AAm?$AA?5?$AAn?$AAa?$AAm?$AAe?$AA?5?$AAu?$AAn?$AAk?$AAn?$AAo?$AAw?$AAn?$AA?$DO?$AA?$AA@ 0000000180013b98     LIBCMT:crt0msg.obj
 0002:00002bc8       ??_C@_17LGKOMLJ@?$AA?4?$AA?4?$AA?4?$AA?$AA@ 0000000180013bc8     LIBCMT:crt0msg.obj
 0002:00002bd0       ??_C@_15IABLJNFO@?$AA?6?$AA?6?$AA?$AA@ 0000000180013bd0     LIBCMT:crt0msg.obj
 0002:00002be0       ??_C@_1EK@MBDPDCGA@?$AAM?$AAi?$AAc?$AAr?$AAo?$AAs?$AAo?$AAf?$AAt?$AA?5?$AAV?$AAi?$AAs?$AAu?$AAa?$AAl?$AA?5?$AAC?$AA?$CL?$AA?$CL?$AA?5?$AAR?$AAu?$AAn?$AAt?$AAi?$AAm?$AAe?$AA?5?$AAL?$AAi?$AAb@ 0000000180013be0     LIBCMT:crt0msg.obj
 0002:00002c30       LcidToLocaleNameTable      0000000180013c30     LIBCMT:winapinls.obj
 0002:00003a70       LocaleNameToIndexTable     0000000180014a70     LIBCMT:winapinls.obj
 0002:000048b0       ??_C@_15EMKDOKLE@?$AAa?$AAr?$AA?$AA@ 00000001800158b0     LIBCMT:winapinls.obj
 0002:000048b8       ??_C@_15KNPADPLH@?$AAb?$AAg?$AA?$AA@ 00000001800158b8     LIBCMT:winapinls.obj
 0002:000048c0       ??_C@_15EDMHLDMO@?$AAc?$AAa?$AA?$AA@ 00000001800158c0     LIBCMT:winapinls.obj
 0002:000048c8       ??_C@_1O@BPEAJADD@?$AAz?$AAh?$AA?9?$AAC?$AAH?$AAS?$AA?$AA@ 00000001800158c8     LIBCMT:winapinls.obj
 0002:000048d8       ??_C@_15LJNHCMNK@?$AAc?$AAs?$AA?$AA@ 00000001800158d8     LIBCMT:winapinls.obj
 0002:000048e0       ??_C@_15FOMCIDHG@?$AAd?$AAa?$AA?$AA@ 00000001800158e0     LIBCMT:winapinls.obj
 0002:000048e8       ??_C@_15NBKABECB@?$AAd?$AAe?$AA?$AA@ 00000001800158e8     LIBCMT:winapinls.obj
 0002:000048f0       ??_C@_15GHPEIIAO@?$AAe?$AAl?$AA?$AA@ 00000001800158f0     LIBCMT:winapinls.obj
 0002:000048f8       ??_C@_15MNPNEAIF@?$AAe?$AAn?$AA?$AA@ 00000001800158f8     LIBCMT:winapinls.obj
 0002:00004900       ??_C@_15GPIOMPMH@?$AAe?$AAs?$AA?$AA@ 0000000180015900     LIBCMT:winapinls.obj
 0002:00004908       ??_C@_15NGLOAKJC@?$AAf?$AAi?$AA?$AA@ 0000000180015908     LIBCMT:winapinls.obj
 0002:00004910       ??_C@_15FBKGNKAM@?$AAf?$AAr?$AA?$AA@ 0000000180015910     LIBCMT:winapinls.obj
 0002:00004918       ??_C@_15KGGCNEFK@?$AAh?$AAe?$AA?$AA@ 0000000180015918     LIBCMT:winapinls.obj
 0002:00004920       ??_C@_15PGHLIDMF@?$AAh?$AAu?$AA?$AA@ 0000000180015920     LIBCMT:winapinls.obj
 0002:00004928       ??_C@_15BIEMAPLM@?$AAi?$AAs?$AA?$AA@ 0000000180015928     LIBCMT:winapinls.obj
 0002:00004930       ??_C@_15IFJLDHAF@?$AAi?$AAt?$AA?$AA@ 0000000180015930     LIBCMT:winapinls.obj
 0002:00004938       ??_C@_15GEMIOCAG@?$AAj?$AAa?$AA?$AA@ 0000000180015938     LIBCMT:winapinls.obj
 0002:00004940       ??_C@_15EPELEGJA@?$AAk?$AAo?$AA?$AA@ 0000000180015940     LIBCMT:winapinls.obj
 0002:00004948       ??_C@_15NDDHIMN@?$AAn?$AAl?$AA?$AA@ 0000000180015948     LIBCMT:winapinls.obj
 0002:00004950       ??_C@_15BPIGNHCD@?$AAn?$AAo?$AA?$AA@ 0000000180015950     LIBCMT:winapinls.obj
 0002:00004958       ??_C@_15DEOPBLCG@?$AAp?$AAl?$AA?$AA@ 0000000180015958     LIBCMT:winapinls.obj
 0002:00004960       ??_C@_15KBECGEFG@?$AAp?$AAt?$AA?$AA@ 0000000180015960     LIBCMT:winapinls.obj
 0002:00004968       ??_C@_15GLJCBFMD@?$AAr?$AAo?$AA?$AA@ 0000000180015968     LIBCMT:winapinls.obj
 0002:00004970       ??_C@_15FEDGKCDI@?$AAr?$AAu?$AA?$AA@ 0000000180015970     LIBCMT:winapinls.obj
 0002:00004978       ??_C@_15GLKMLLHM@?$AAh?$AAr?$AA?$AA@ 0000000180015978     LIBCMT:winapinls.obj
 0002:00004980       ??_C@_15CPKMFBDB@?$AAs?$AAk?$AA?$AA@ 0000000180015980     LIBCMT:winapinls.obj
 0002:00004988       ??_C@_15BAAIOGMK@?$AAs?$AAq?$AA?$AA@ 0000000180015988     LIBCMT:winapinls.obj
 0002:00004990       ??_C@_15INNPNOHD@?$AAs?$AAv?$AA?$AA@ 0000000180015990     LIBCMT:winapinls.obj
 0002:00004998       ??_C@_15CABMMOGH@?$AAt?$AAh?$AA?$AA@ 0000000180015998     LIBCMT:winapinls.obj
 0002:000049a0       ??_C@_15BPLIHJJM@?$AAt?$AAr?$AA?$AA@ 00000001800159a0     LIBCMT:winapinls.obj
 0002:000049a8       ??_C@_15NEOEKKDJ@?$AAu?$AAr?$AA?$AA@ 00000001800159a8     LIBCMT:winapinls.obj
 0002:000049b0       ??_C@_15NFICGAJK@?$AAi?$AAd?$AA?$AA@ 00000001800159b0     LIBCMT:winapinls.obj
 0002:000049b8       ??_C@_15PJPFLCCM@?$AAu?$AAk?$AA?$AA@ 00000001800159b8     LIBCMT:winapinls.obj
 0002:000049c0       ??_C@_15HPJPHDM@?$AAb?$AAe?$AA?$AA@ 00000001800159c0     LIBCMT:winapinls.obj
 0002:000049c8       ??_C@_15LCHLGJII@?$AAs?$AAl?$AA?$AA@ 00000001800159c8     LIBCMT:winapinls.obj
 0002:000049d0       ??_C@_15PCFJPHHO@?$AAe?$AAt?$AA?$AA@ 00000001800159d0     LIBCMT:winapinls.obj
 0002:000049d8       ??_C@_15HPFPGODN@?$AAl?$AAv?$AA?$AA@ 00000001800159d8     LIBCMT:winapinls.obj
 0002:000049e0       ??_C@_15NFFGKGLG@?$AAl?$AAt?$AA?$AA@ 00000001800159e0     LIBCMT:winapinls.obj
 0002:000049e8       ??_C@_15BDAKCCHN@?$AAf?$AAa?$AA?$AA@ 00000001800159e8     LIBCMT:winapinls.obj
 0002:000049f0       ??_C@_15NFGIAIAJ@?$AAv?$AAi?$AA?$AA@ 00000001800159f0     LIBCMT:winapinls.obj
 0002:000049f8       ??_C@_15LMKNDMHN@?$AAh?$AAy?$AA?$AA@ 00000001800159f8     LIBCMT:winapinls.obj
 0002:00004a00       ??_C@_15IJBHMCFL@?$AAa?$AAz?$AA?$AA@ 0000000180015a00     LIBCMT:winapinls.obj
 0002:00004a08       ??_C@_15EKOFJABL@?$AAe?$AAu?$AA?$AA@ 0000000180015a08     LIBCMT:winapinls.obj
 0002:00004a10       ??_C@_15BGHADCNK@?$AAm?$AAk?$AA?$AA@ 0000000180015a10     LIBCMT:winapinls.obj
 0002:00004a18       ??_C@_15JDNICKHM@?$AAa?$AAf?$AA?$AA@ 0000000180015a18     LIBCMT:winapinls.obj
 0002:00004a20       ??_C@_15KPJEDBKD@?$AAk?$AAa?$AA?$AA@ 0000000180015a20     LIBCMT:winapinls.obj
 0002:00004a28       ??_C@_15PDNFFFEO@?$AAf?$AAo?$AA?$AA@ 0000000180015a28     LIBCMT:winapinls.obj
 0002:00004a30       ??_C@_15OMLEGLOC@?$AAh?$AAi?$AA?$AA@ 0000000180015a30     LIBCMT:winapinls.obj
 0002:00004a38       ??_C@_15IDNNENKK@?$AAm?$AAs?$AA?$AA@ 0000000180015a38     LIBCMT:winapinls.obj
 0002:00004a40       ??_C@_15MACJNBMH@?$AAk?$AAk?$AA?$AA@ 0000000180015a40     LIBCMT:winapinls.obj
 0002:00004a48       ??_C@_15DKDJEOND@?$AAk?$AAy?$AA?$AA@ 0000000180015a48     LIBCMT:winapinls.obj
 0002:00004a50       ??_C@_15DFGDLJBG@?$AAs?$AAw?$AA?$AA@ 0000000180015a50     LIBCMT:winapinls.obj
 0002:00004a58       ??_C@_15BBFAICNG@?$AAu?$AAz?$AA?$AA@ 0000000180015a58     LIBCMT:winapinls.obj
 0002:00004a60       ??_C@_15DKNDCGEA@?$AAt?$AAt?$AA?$AA@ 0000000180015a60     LIBCMT:winapinls.obj
 0002:00004a68       ??_C@_15MGIFMDPL@?$AAp?$AAa?$AA?$AA@ 0000000180015a68     LIBCMT:winapinls.obj
 0002:00004a70       ??_C@_15HCNDBBA@?$AAg?$AAu?$AA?$AA@ 0000000180015a70     LIBCMT:winapinls.obj
 0002:00004a78       ??_C@_15FNBEIBON@?$AAt?$AAa?$AA?$AA@ 0000000180015a78     LIBCMT:winapinls.obj
 0002:00004a80       ??_C@_15NCHGBGLK@?$AAt?$AAe?$AA?$AA@ 0000000180015a80     LIBCMT:winapinls.obj
 0002:00004a88       ??_C@_15PHPHCBPF@?$AAk?$AAn?$AA?$AA@ 0000000180015a88     LIBCMT:winapinls.obj
 0002:00004a90       ??_C@_15DLGBCKMP@?$AAm?$AAr?$AA?$AA@ 0000000180015a90     LIBCMT:winapinls.obj
 0002:00004a98       ??_C@_15EABBLBFF@?$AAs?$AAa?$AA?$AA@ 0000000180015a98     LIBCMT:winapinls.obj
 0002:00004aa0       ??_C@_15CBKOMCOI@?$AAm?$AAn?$AA?$AA@ 0000000180015aa0     LIBCMT:winapinls.obj
 0002:00004aa8       ??_C@_15CKDMCJAF@?$AAg?$AAl?$AA?$AA@ 0000000180015aa8     LIBCMT:winapinls.obj
 0002:00004ab0       ??_C@_17CNJFBPG@?$AAk?$AAo?$AAk?$AA?$AA@ 0000000180015ab0     LIBCMT:winapinls.obj
 0002:00004ab8       ??_C@_17FFBJICPL@?$AAs?$AAy?$AAr?$AA?$AA@ 0000000180015ab8     LIBCMT:winapinls.obj
 0002:00004ac0       ??_C@_17KPNDCPAF@?$AAd?$AAi?$AAv?$AA?$AA@ 0000000180015ac0     LIBCMT:winapinls.obj
 0002:00004ac8       ??_C@_11LOCGONAA@?$AA?$AA@ 0000000180015ac8     LIBCMT:winapinls.obj
 0002:00004ad0       ??_C@_1M@OKAHONE@?$AAa?$AAr?$AA?9?$AAS?$AAA?$AA?$AA@ 0000000180015ad0     LIBCMT:winapinls.obj
 0002:00004ae0       ??_C@_1M@FFFIGIGK@?$AAb?$AAg?$AA?9?$AAB?$AAG?$AA?$AA@ 0000000180015ae0     LIBCMT:winapinls.obj
 0002:00004af0       ??_C@_1M@BJNKEDC@?$AAc?$AAa?$AA?9?$AAE?$AAS?$AA?$AA@ 0000000180015af0     LIBCMT:winapinls.obj
 0002:00004b00       ??_C@_1M@IJJHFJHA@?$AAc?$AAs?$AA?9?$AAC?$AAZ?$AA?$AA@ 0000000180015b00     LIBCMT:winapinls.obj
 0002:00004b10       ??_C@_1M@CLPEOBGI@?$AAd?$AAa?$AA?9?$AAD?$AAK?$AA?$AA@ 0000000180015b10     LIBCMT:winapinls.obj
 0002:00004b20       ??_C@_1M@MCMADGCB@?$AAd?$AAe?$AA?9?$AAD?$AAE?$AA?$AA@ 0000000180015b20     LIBCMT:winapinls.obj
 0002:00004b30       ??_C@_1M@OOCKEMAM@?$AAe?$AAl?$AA?9?$AAG?$AAR?$AA?$AA@ 0000000180015b30     LIBCMT:winapinls.obj
 0002:00004b40       ??_C@_1M@DDNJFGID@?$AAf?$AAi?$AA?9?$AAF?$AAI?$AA?$AA@ 0000000180015b40     LIBCMT:winapinls.obj
 0002:00004b50       ??_C@_1M@GLIPPMAC@?$AAf?$AAr?$AA?9?$AAF?$AAR?$AA?$AA@ 0000000180015b50     LIBCMT:winapinls.obj
 0002:00004b60       ??_C@_1M@GFMCHPE@?$AAh?$AAe?$AA?9?$AAI?$AAL?$AA?$AA@ 0000000180015b60     LIBCMT:winapinls.obj
 0002:00004b70       ??_C@_1M@MHLPGNKM@?$AAh?$AAu?$AA?9?$AAH?$AAU?$AA?$AA@ 0000000180015b70     LIBCMT:winapinls.obj
 0002:00004b80       ??_C@_1M@LPDDNNPN@?$AAi?$AAs?$AA?9?$AAI?$AAS?$AA?$AA@ 0000000180015b80     LIBCMT:winapinls.obj
 0002:00004b90       ??_C@_1M@MADIPODN@?$AAi?$AAt?$AA?9?$AAI?$AAT?$AA?$AA@ 0000000180015b90     LIBCMT:winapinls.obj
 0002:00004ba0       ??_C@_1M@IHBJJGG@?$AAn?$AAl?$AA?9?$AAN?$AAL?$AA?$AA@ 0000000180015ba0     LIBCMT:winapinls.obj
 0002:00004bb0       ??_C@_1M@EANAGDL@?$AAn?$AAb?$AA?9?$AAN?$AAO?$AA?$AA@ 0000000180015bb0     LIBCMT:winapinls.obj
 0002:00004bc0       ??_C@_1M@NEIEMEGP@?$AAp?$AAl?$AA?9?$AAP?$AAL?$AA?$AA@ 0000000180015bc0     LIBCMT:winapinls.obj
 0002:00004bd0       ??_C@_1M@BOCFIGEP@?$AAp?$AAt?$AA?9?$AAB?$AAR?$AA?$AA@ 0000000180015bd0     LIBCMT:winapinls.obj
 0002:00004be0       ??_C@_1M@IMPFOPBG@?$AAr?$AAo?$AA?9?$AAR?$AAO?$AA?$AA@ 0000000180015be0     LIBCMT:winapinls.obj
 0002:00004bf0       ??_C@_1M@IDNNEJMM@?$AAr?$AAu?$AA?9?$AAR?$AAU?$AA?$AA@ 0000000180015bf0     LIBCMT:winapinls.obj
 0002:00004c00       ??_C@_1M@LILEEOGM@?$AAh?$AAr?$AA?9?$AAH?$AAR?$AA?$AA@ 0000000180015c00     LIBCMT:winapinls.obj
 0002:00004c10       ??_C@_1M@FKIFEHPB@?$AAs?$AAk?$AA?9?$AAS?$AAK?$AA?$AA@ 0000000180015c10     LIBCMT:winapinls.obj
 0002:00004c20       ??_C@_1M@LJMAMNPJ@?$AAs?$AAq?$AA?9?$AAA?$AAL?$AA?$AA@ 0000000180015c20     LIBCMT:winapinls.obj
 0002:00004c30       ??_C@_1M@GIAKDKJK@?$AAs?$AAv?$AA?9?$AAS?$AAE?$AA?$AA@ 0000000180015c30     LIBCMT:winapinls.obj
 0002:00004c40       ??_C@_1M@MKJKIKCL@?$AAt?$AAh?$AA?9?$AAT?$AAH?$AA?$AA@ 0000000180015c40     LIBCMT:winapinls.obj
 0002:00004c50       ??_C@_1M@MFLCCMPB@?$AAt?$AAr?$AA?9?$AAT?$AAR?$AA?$AA@ 0000000180015c50     LIBCMT:winapinls.obj
 0002:00004c60       ??_C@_1M@OIJHDKJN@?$AAu?$AAr?$AA?9?$AAP?$AAK?$AA?$AA@ 0000000180015c60     LIBCMT:winapinls.obj
 0002:00004c70       ??_C@_1M@LHIPCIEK@?$AAi?$AAd?$AA?9?$AAI?$AAD?$AA?$AA@ 0000000180015c70     LIBCMT:winapinls.obj
 0002:00004c80       ??_C@_1M@MFMOBGI@?$AAu?$AAk?$AA?9?$AAU?$AAA?$AA?$AA@ 0000000180015c80     LIBCMT:winapinls.obj
 0002:00004c90       ??_C@_1M@OBGLJIPL@?$AAb?$AAe?$AA?9?$AAB?$AAY?$AA?$AA@ 0000000180015c90     LIBCMT:winapinls.obj
 0002:00004ca0       ??_C@_1M@BCFAJEAD@?$AAs?$AAl?$AA?9?$AAS?$AAI?$AA?$AA@ 0000000180015ca0     LIBCMT:winapinls.obj
 0002:00004cb0       ??_C@_1M@FKFFEDDN@?$AAe?$AAt?$AA?9?$AAE?$AAE?$AA?$AA@ 0000000180015cb0     LIBCMT:winapinls.obj
 0002:00004cc0       ??_C@_1M@KGKKAACI@?$AAl?$AAv?$AA?9?$AAL?$AAV?$AA?$AA@ 0000000180015cc0     LIBCMT:winapinls.obj
 0002:00004cd0       ??_C@_1M@IFGBIJO@?$AAl?$AAt?$AA?9?$AAL?$AAT?$AA?$AA@ 0000000180015cd0     LIBCMT:winapinls.obj
 0002:00004ce0       ??_C@_1M@FGEAHEDM@?$AAf?$AAa?$AA?9?$AAI?$AAR?$AA?$AA@ 0000000180015ce0     LIBCMT:winapinls.obj
 0002:00004cf0       ??_C@_1M@KBMAIBFN@?$AAv?$AAi?$AA?9?$AAV?$AAN?$AA?$AA@ 0000000180015cf0     LIBCMT:winapinls.obj
 0002:00004d00       ??_C@_1M@GPCBKDJK@?$AAh?$AAy?$AA?9?$AAA?$AAM?$AA?$AA@ 0000000180015d00     LIBCMT:winapinls.obj
 0002:00004d10       ??_C@_1BG@BECMDDJB@?$AAa?$AAz?$AA?9?$AAA?$AAZ?$AA?9?$AAL?$AAa?$AAt?$AAn?$AA?$AA@ 0000000180015d10     LIBCMT:winapinls.obj
 0002:00004d28       ??_C@_1M@MAOFCAEA@?$AAe?$AAu?$AA?9?$AAE?$AAS?$AA?$AA@ 0000000180015d28     LIBCMT:winapinls.obj
 0002:00004d38       ??_C@_1M@IGHABKPI@?$AAm?$AAk?$AA?9?$AAM?$AAK?$AA?$AA@ 0000000180015d38     LIBCMT:winapinls.obj
 0002:00004d48       ??_C@_1M@IAIGNEJG@?$AAt?$AAn?$AA?9?$AAZ?$AAA?$AA?$AA@ 0000000180015d48     LIBCMT:winapinls.obj
 0002:00004d58       ??_C@_1M@IIJCOJFA@?$AAx?$AAh?$AA?9?$AAZ?$AAA?$AA?$AA@ 0000000180015d58     LIBCMT:winapinls.obj
 0002:00004d68       ??_C@_1M@LGPJHNJH@?$AAz?$AAu?$AA?9?$AAZ?$AAA?$AA?$AA@ 0000000180015d68     LIBCMT:winapinls.obj
 0002:00004d78       ??_C@_1M@HOKAOIO@?$AAa?$AAf?$AA?9?$AAZ?$AAA?$AA?$AA@ 0000000180015d78     LIBCMT:winapinls.obj
 0002:00004d88       ??_C@_1M@DPCLHLIE@?$AAk?$AAa?$AA?9?$AAG?$AAE?$AA?$AA@ 0000000180015d88     LIBCMT:winapinls.obj
 0002:00004d98       ??_C@_1M@BLKMHJBI@?$AAf?$AAo?$AA?9?$AAF?$AAO?$AA?$AA@ 0000000180015d98     LIBCMT:winapinls.obj
 0002:00004da8       ??_C@_1M@LGGJAPPB@?$AAh?$AAi?$AA?9?$AAI?$AAN?$AA?$AA@ 0000000180015da8     LIBCMT:winapinls.obj
 0002:00004db8       ??_C@_1M@FIKPIHFE@?$AAm?$AAt?$AA?9?$AAM?$AAT?$AA?$AA@ 0000000180015db8     LIBCMT:winapinls.obj
 0002:00004dc8       ??_C@_1M@HEGGPBFA@?$AAs?$AAe?$AA?9?$AAN?$AAO?$AA?$AA@ 0000000180015dc8     LIBCMT:winapinls.obj
 0002:00004dd8       ??_C@_1M@EIBJEEPA@?$AAm?$AAs?$AA?9?$AAM?$AAY?$AA?$AA@ 0000000180015dd8     LIBCMT:winapinls.obj
 0002:00004de8       ??_C@_1M@FHLBGMPP@?$AAk?$AAk?$AA?9?$AAK?$AAZ?$AA?$AA@ 0000000180015de8     LIBCMT:winapinls.obj
 0002:00004df8       ??_C@_1M@NGJJLCGI@?$AAk?$AAy?$AA?9?$AAK?$AAG?$AA?$AA@ 0000000180015df8     LIBCMT:winapinls.obj
 0002:00004e08       ??_C@_1M@GIENNBFC@?$AAs?$AAw?$AA?9?$AAK?$AAE?$AA?$AA@ 0000000180015e08     LIBCMT:winapinls.obj
 0002:00004e18       ??_C@_1BG@NDGMJIMJ@?$AAu?$AAz?$AA?9?$AAU?$AAZ?$AA?9?$AAL?$AAa?$AAt?$AAn?$AA?$AA@ 0000000180015e18     LIBCMT:winapinls.obj
 0002:00004e30       ??_C@_1M@IDCCIHBC@?$AAt?$AAt?$AA?9?$AAR?$AAU?$AA?$AA@ 0000000180015e30     LIBCMT:winapinls.obj
 0002:00004e40       ??_C@_1M@LOICPMOJ@?$AAb?$AAn?$AA?9?$AAI?$AAN?$AA?$AA@ 0000000180015e40     LIBCMT:winapinls.obj
 0002:00004e50       ??_C@_1M@KPKKNEAH@?$AAp?$AAa?$AA?9?$AAI?$AAN?$AA?$AA@ 0000000180015e50     LIBCMT:winapinls.obj
 0002:00004e60       ??_C@_1M@PJGPPBOG@?$AAg?$AAu?$AA?9?$AAI?$AAN?$AA?$AA@ 0000000180015e60     LIBCMT:winapinls.obj
 0002:00004e70       ??_C@_1M@KMKMOPHI@?$AAt?$AAa?$AA?9?$AAI?$AAN?$AA?$AA@ 0000000180015e70     LIBCMT:winapinls.obj
 0002:00004e80       ??_C@_1M@KFEHEPAC@?$AAt?$AAe?$AA?9?$AAI?$AAN?$AA?$AA@ 0000000180015e80     LIBCMT:winapinls.obj
 0002:00004e90       ??_C@_1M@CDCLMGHI@?$AAk?$AAn?$AA?9?$AAI?$AAN?$AA?$AA@ 0000000180015e90     LIBCMT:winapinls.obj
 0002:00004ea0       ??_C@_1M@MIODLDKF@?$AAm?$AAl?$AA?9?$AAI?$AAN?$AA?$AA@ 0000000180015ea0     LIBCMT:winapinls.obj
 0002:00004eb0       ??_C@_1M@PBIEACPO@?$AAm?$AAr?$AA?9?$AAI?$AAN?$AA?$AA@ 0000000180015eb0     LIBCMT:winapinls.obj
 0002:00004ec0       ??_C@_1M@NIDEAGPH@?$AAs?$AAa?$AA?9?$AAI?$AAN?$AA?$AA@ 0000000180015ec0     LIBCMT:winapinls.obj
 0002:00004ed0       ??_C@_1M@FHIHCBIO@?$AAm?$AAn?$AA?9?$AAM?$AAN?$AA?$AA@ 0000000180015ed0     LIBCMT:winapinls.obj
 0002:00004ee0       ??_C@_1M@JAIJPENP@?$AAc?$AAy?$AA?9?$AAG?$AAB?$AA?$AA@ 0000000180015ee0     LIBCMT:winapinls.obj
 0002:00004ef0       ??_C@_1M@PHGFBEPN@?$AAg?$AAl?$AA?9?$AAE?$AAS?$AA?$AA@ 0000000180015ef0     LIBCMT:winapinls.obj
 0002:00004f00       ??_C@_1O@KPIPDNCP@?$AAk?$AAo?$AAk?$AA?9?$AAI?$AAN?$AA?$AA@ 0000000180015f00     LIBCMT:winapinls.obj
 0002:00004f10       ??_C@_1O@KNHJLDJA@?$AAs?$AAy?$AAr?$AA?9?$AAS?$AAY?$AA?$AA@ 0000000180015f10     LIBCMT:winapinls.obj
 0002:00004f20       ??_C@_1O@MKEKBLAH@?$AAd?$AAi?$AAv?$AA?9?$AAM?$AAV?$AA?$AA@ 0000000180015f20     LIBCMT:winapinls.obj
 0002:00004f30       ??_C@_1O@OHDCKDDF@?$AAq?$AAu?$AAz?$AA?9?$AAB?$AAO?$AA?$AA@ 0000000180015f30     LIBCMT:winapinls.obj
 0002:00004f40       ??_C@_1M@LEPJNLFD@?$AAn?$AAs?$AA?9?$AAZ?$AAA?$AA?$AA@ 0000000180015f40     LIBCMT:winapinls.obj
 0002:00004f50       ??_C@_1M@OMLEIIJB@?$AAm?$AAi?$AA?9?$AAN?$AAZ?$AA?$AA@ 0000000180015f50     LIBCMT:winapinls.obj
 0002:00004f60       ??_C@_1M@PMPEAILG@?$AAa?$AAr?$AA?9?$AAI?$AAQ?$AA?$AA@ 0000000180015f60     LIBCMT:winapinls.obj
 0002:00004f70       ??_C@_1M@CNKPNOEE@?$AAd?$AAe?$AA?9?$AAC?$AAH?$AA?$AA@ 0000000180015f70     LIBCMT:winapinls.obj
 0002:00004f80       ??_C@_1M@LKMGMLKO@?$AAe?$AAn?$AA?9?$AAG?$AAB?$AA?$AA@ 0000000180015f80     LIBCMT:winapinls.obj
 0002:00004f90       ??_C@_1M@PGKJFFGL@?$AAe?$AAs?$AA?9?$AAM?$AAX?$AA?$AA@ 0000000180015f90     LIBCMT:winapinls.obj
 0002:00004fa0       ??_C@_1M@DNNANBDC@?$AAf?$AAr?$AA?9?$AAB?$AAE?$AA?$AA@ 0000000180015fa0     LIBCMT:winapinls.obj
 0002:00004fb0       ??_C@_1M@HLGMDFHM@?$AAi?$AAt?$AA?9?$AAC?$AAH?$AA?$AA@ 0000000180015fb0     LIBCMT:winapinls.obj
 0002:00004fc0       ??_C@_1M@CLLBGJH@?$AAn?$AAl?$AA?9?$AAB?$AAE?$AA?$AA@ 0000000180015fc0     LIBCMT:winapinls.obj
 0002:00004fd0       ??_C@_1M@BODBOGLF@?$AAn?$AAn?$AA?9?$AAN?$AAO?$AA?$AA@ 0000000180015fd0     LIBCMT:winapinls.obj
 0002:00004fe0       ??_C@_1M@HFFAHKAD@?$AAp?$AAt?$AA?9?$AAP?$AAT?$AA?$AA@ 0000000180015fe0     LIBCMT:winapinls.obj
 0002:00004ff0       ??_C@_1BG@LNOAKHIE@?$AAs?$AAr?$AA?9?$AAS?$AAP?$AA?9?$AAL?$AAa?$AAt?$AAn?$AA?$AA@ 0000000180015ff0     LIBCMT:winapinls.obj
 0002:00005008       ??_C@_1M@HBMHBGAK@?$AAs?$AAv?$AA?9?$AAF?$AAI?$AA?$AA@ 0000000180016008     LIBCMT:winapinls.obj
 0002:00005018       ??_C@_1BG@DGCJGJBE@?$AAa?$AAz?$AA?9?$AAA?$AAZ?$AA?9?$AAC?$AAy?$AAr?$AAl?$AA?$AA@ 0000000180016018     LIBCMT:winapinls.obj
 0002:00005030       ??_C@_1M@KEJDAAHB@?$AAs?$AAe?$AA?9?$AAS?$AAE?$AA?$AA@ 0000000180016030     LIBCMT:winapinls.obj
 0002:00005040       ??_C@_1M@HEIBJJAD@?$AAm?$AAs?$AA?9?$AAB?$AAN?$AA?$AA@ 0000000180016040     LIBCMT:winapinls.obj
 0002:00005050       ??_C@_1BG@PBGJMCEM@?$AAu?$AAz?$AA?9?$AAU?$AAZ?$AA?9?$AAC?$AAy?$AAr?$AAl?$AA?$AA@ 0000000180016050     LIBCMT:winapinls.obj
 0002:00005068       ??_C@_1O@LAOBCMDF@?$AAq?$AAu?$AAz?$AA?9?$AAE?$AAC?$AA?$AA@ 0000000180016068     LIBCMT:winapinls.obj
 0002:00005078       ??_C@_1M@POEEMAIO@?$AAa?$AAr?$AA?9?$AAE?$AAG?$AA?$AA@ 0000000180016078     LIBCMT:winapinls.obj
 0002:00005088       ??_C@_1M@EFAKDEDL@?$AAz?$AAh?$AA?9?$AAH?$AAK?$AA?$AA@ 0000000180016088     LIBCMT:winapinls.obj
 0002:00005098       ??_C@_1M@HKKIJHGI@?$AAd?$AAe?$AA?9?$AAA?$AAT?$AA?$AA@ 0000000180016098     LIBCMT:winapinls.obj
 0002:000050a8       ??_C@_1M@KBFBEHJF@?$AAe?$AAn?$AA?9?$AAA?$AAU?$AA?$AA@ 00000001800160a8     LIBCMT:winapinls.obj
 0002:000050b8       ??_C@_1M@MNPLFAAH@?$AAe?$AAs?$AA?9?$AAE?$AAS?$AA?$AA@ 00000001800160b8     LIBCMT:winapinls.obj
 0002:000050c8       ??_C@_1M@HJOOJFMA@?$AAf?$AAr?$AA?9?$AAC?$AAA?$AA?$AA@ 00000001800160c8     LIBCMT:winapinls.obj
 0002:000050d8       ??_C@_1BG@JPOFPNAB@?$AAs?$AAr?$AA?9?$AAS?$AAP?$AA?9?$AAC?$AAy?$AAr?$AAl?$AA?$AA@ 00000001800160d8     LIBCMT:winapinls.obj
 0002:000050f0       ??_C@_1M@LNFOCMOB@?$AAs?$AAe?$AA?9?$AAF?$AAI?$AA?$AA@ 00000001800160f0     LIBCMT:winapinls.obj
 0002:00005100       ??_C@_1O@MGJBOAMB@?$AAq?$AAu?$AAz?$AA?9?$AAP?$AAE?$AA?$AA@ 0000000180016100     LIBCMT:winapinls.obj
 0002:00005110       ??_C@_1M@GJINLBOK@?$AAa?$AAr?$AA?9?$AAL?$AAY?$AA?$AA@ 0000000180016110     LIBCMT:winapinls.obj
 0002:00005120       ??_C@_1M@GGMNHJNL@?$AAz?$AAh?$AA?9?$AAS?$AAG?$AA?$AA@ 0000000180016120     LIBCMT:winapinls.obj
 0002:00005130       ??_C@_1M@HOIKODND@?$AAd?$AAe?$AA?9?$AAL?$AAU?$AA?$AA@ 0000000180016130     LIBCMT:winapinls.obj
 0002:00005140       ??_C@_1M@DDOCCGFG@?$AAe?$AAn?$AA?9?$AAC?$AAA?$AA?$AA@ 0000000180016140     LIBCMT:winapinls.obj
 0002:00005150       ??_C@_1M@BNOEMJLF@?$AAe?$AAs?$AA?9?$AAG?$AAT?$AA?$AA@ 0000000180016150     LIBCMT:winapinls.obj
 0002:00005160       ??_C@_1M@EOGNKEK@?$AAf?$AAr?$AA?9?$AAC?$AAH?$AA?$AA@ 0000000180016160     LIBCMT:winapinls.obj
 0002:00005170       ??_C@_1M@FLIDJFHL@?$AAh?$AAr?$AA?9?$AAB?$AAA?$AA?$AA@ 0000000180016170     LIBCMT:winapinls.obj
 0002:00005180       ??_C@_1O@FMCELNAJ@?$AAs?$AAm?$AAj?$AA?9?$AAN?$AAO?$AA?$AA@ 0000000180016180     LIBCMT:winapinls.obj
 0002:00005190       ??_C@_1M@JHGLJMGJ@?$AAa?$AAr?$AA?9?$AAD?$AAZ?$AA?$AA@ 0000000180016190     LIBCMT:winapinls.obj
 0002:000051a0       ??_C@_1M@JKKFDCNP@?$AAz?$AAh?$AA?9?$AAM?$AAO?$AA?$AA@ 00000001800161a0     LIBCMT:winapinls.obj
 0002:000051b0       ??_C@_1M@GEEFALPE@?$AAd?$AAe?$AA?9?$AAL?$AAI?$AA?$AA@ 00000001800161b0     LIBCMT:winapinls.obj
 0002:000051c0       ??_C@_1M@IGEOFBG@?$AAe?$AAn?$AA?9?$AAN?$AAZ?$AA?$AA@ 00000001800161c0     LIBCMT:winapinls.obj
 0002:000051d0       ??_C@_1M@KDBONEHP@?$AAe?$AAs?$AA?9?$AAC?$AAR?$AA?$AA@ 00000001800161d0     LIBCMT:winapinls.obj
 0002:000051e0       ??_C@_1M@FHMDOHNN@?$AAf?$AAr?$AA?9?$AAL?$AAU?$AA?$AA@ 00000001800161e0     LIBCMT:winapinls.obj
 0002:000051f0       ??_C@_1BG@NFKKMAFG@?$AAb?$AAs?$AA?9?$AAB?$AAA?$AA?9?$AAL?$AAa?$AAt?$AAn?$AA?$AA@ 00000001800161f0     LIBCMT:winapinls.obj
 0002:00005208       ??_C@_1O@IMNBEMCI@?$AAs?$AAm?$AAj?$AA?9?$AAS?$AAE?$AA?$AA@ 0000000180016208     LIBCMT:winapinls.obj
 0002:00005218       ??_C@_1M@DHHMBNDP@?$AAa?$AAr?$AA?9?$AAM?$AAA?$AA?$AA@ 0000000180016218     LIBCMT:winapinls.obj
 0002:00005228       ??_C@_1M@BNBLJCGH@?$AAe?$AAn?$AA?9?$AAI?$AAE?$AA?$AA@ 0000000180016228     LIBCMT:winapinls.obj
 0002:00005238       ??_C@_1M@GEPAFMDL@?$AAe?$AAs?$AA?9?$AAP?$AAA?$AA?$AA@ 0000000180016238     LIBCMT:winapinls.obj
 0002:00005248       ??_C@_1M@OJONDMDL@?$AAf?$AAr?$AA?9?$AAM?$AAC?$AA?$AA@ 0000000180016248     LIBCMT:winapinls.obj
 0002:00005258       ??_C@_1BG@OBCNFJB@?$AAs?$AAr?$AA?9?$AAB?$AAA?$AA?9?$AAL?$AAa?$AAt?$AAn?$AA?$AA@ 0000000180016258     LIBCMT:winapinls.obj
 0002:00005270       ??_C@_1O@KEMEEGPO@?$AAs?$AAm?$AAa?$AA?9?$AAN?$AAO?$AA?$AA@ 0000000180016270     LIBCMT:winapinls.obj
 0002:00005280       ??_C@_1M@ELMGFODK@?$AAa?$AAr?$AA?9?$AAT?$AAN?$AA?$AA@ 0000000180016280     LIBCMT:winapinls.obj
 0002:00005290       ??_C@_1M@BHDLHFAF@?$AAe?$AAn?$AA?9?$AAZ?$AAA?$AA?$AA@ 0000000180016290     LIBCMT:winapinls.obj
 0002:000052a0       ??_C@_1M@BMGIGLIF@?$AAe?$AAs?$AA?9?$AAD?$AAO?$AA?$AA@ 00000001800162a0     LIBCMT:winapinls.obj
 0002:000052b0       ??_C@_1BG@CMBHIPBE@?$AAs?$AAr?$AA?9?$AAB?$AAA?$AA?9?$AAC?$AAy?$AAr?$AAl?$AA?$AA@ 00000001800162b0     LIBCMT:winapinls.obj
 0002:000052c8       ??_C@_1O@HEDBLHNP@?$AAs?$AAm?$AAa?$AA?9?$AAS?$AAE?$AA?$AA@ 00000001800162c8     LIBCMT:winapinls.obj
 0002:000052d8       ??_C@_1M@DAGCADIM@?$AAa?$AAr?$AA?9?$AAO?$AAM?$AA?$AA@ 00000001800162d8     LIBCMT:winapinls.obj
 0002:000052e8       ??_C@_1M@FODLMICG@?$AAe?$AAn?$AA?9?$AAJ?$AAM?$AA?$AA@ 00000001800162e8     LIBCMT:winapinls.obj
 0002:000052f8       ??_C@_1M@DNMLCIHB@?$AAe?$AAs?$AA?9?$AAV?$AAE?$AA?$AA@ 00000001800162f8     LIBCMT:winapinls.obj
 0002:00005308       ??_C@_1O@EOKHMKJK@?$AAs?$AAm?$AAs?$AA?9?$AAF?$AAI?$AA?$AA@ 0000000180016308     LIBCMT:winapinls.obj
 0002:00005318       ??_C@_1M@CAFJMKOF@?$AAa?$AAr?$AA?9?$AAY?$AAE?$AA?$AA@ 0000000180016318     LIBCMT:winapinls.obj
 0002:00005328       ??_C@_1M@CBFHIJLI@?$AAe?$AAn?$AA?9?$AAC?$AAB?$AA?$AA@ 0000000180016328     LIBCMT:winapinls.obj
 0002:00005338       ??_C@_1M@BGNFLDN@?$AAe?$AAs?$AA?9?$AAC?$AAO?$AA?$AA@ 0000000180016338     LIBCMT:winapinls.obj
 0002:00005348       ??_C@_1O@JMPHMAMC@?$AAs?$AAm?$AAn?$AA?9?$AAF?$AAI?$AA?$AA@ 0000000180016348     LIBCMT:winapinls.obj
 0002:00005358       ??_C@_1M@JLANABKE@?$AAa?$AAr?$AA?9?$AAS?$AAY?$AA?$AA@ 0000000180016358     LIBCMT:winapinls.obj
 0002:00005368       ??_C@_1M@HPKGCFGN@?$AAe?$AAn?$AA?9?$AAB?$AAZ?$AA?$AA@ 0000000180016368     LIBCMT:winapinls.obj
 0002:00005378       ??_C@_1M@OLJCMLGM@?$AAe?$AAs?$AA?9?$AAP?$AAE?$AA?$AA@ 0000000180016378     LIBCMT:winapinls.obj
 0002:00005388       ??_C@_1M@MKKGFKLE@?$AAa?$AAr?$AA?9?$AAJ?$AAO?$AA?$AA@ 0000000180016388     LIBCMT:winapinls.obj
 0002:00005398       ??_C@_1M@EKPGLDNI@?$AAe?$AAn?$AA?9?$AAT?$AAT?$AA?$AA@ 0000000180016398     LIBCMT:winapinls.obj
 0002:000053a8       ??_C@_1M@OONGHFHE@?$AAe?$AAs?$AA?9?$AAA?$AAR?$AA?$AA@ 00000001800163a8     LIBCMT:winapinls.obj
 0002:000053b8       ??_C@_1M@OOJFGBHE@?$AAa?$AAr?$AA?9?$AAL?$AAB?$AA?$AA@ 00000001800163b8     LIBCMT:winapinls.obj
 0002:000053c8       ??_C@_1M@GCEJHNEG@?$AAe?$AAn?$AA?9?$AAZ?$AAW?$AA?$AA@ 00000001800163c8     LIBCMT:winapinls.obj
 0002:000053d8       ??_C@_1M@JNOCAHJI@?$AAe?$AAs?$AA?9?$AAE?$AAC?$AA?$AA@ 00000001800163d8     LIBCMT:winapinls.obj
 0002:000053e8       ??_C@_1M@JEFHPGGB@?$AAa?$AAr?$AA?9?$AAK?$AAW?$AA?$AA@ 00000001800163e8     LIBCMT:winapinls.obj
 0002:000053f8       ??_C@_1M@MLKIBJOJ@?$AAe?$AAn?$AA?9?$AAP?$AAH?$AA?$AA@ 00000001800163f8     LIBCMT:winapinls.obj
 0002:00005408       ??_C@_1M@BDNIPEND@?$AAe?$AAs?$AA?9?$AAC?$AAL?$AA?$AA@ 0000000180016408     LIBCMT:winapinls.obj
 0002:00005418       ??_C@_1M@MPNMEKBD@?$AAa?$AAr?$AA?9?$AAA?$AAE?$AA?$AA@ 0000000180016418     LIBCMT:winapinls.obj
 0002:00005428       ??_C@_1M@KBJALCPI@?$AAe?$AAs?$AA?9?$AAU?$AAY?$AA?$AA@ 0000000180016428     LIBCMT:winapinls.obj
 0002:00005438       ??_C@_1M@LLCCOAGA@?$AAa?$AAr?$AA?9?$AAB?$AAH?$AA?$AA@ 0000000180016438     LIBCMT:winapinls.obj
 0002:00005448       ??_C@_1M@PBFNCDEL@?$AAe?$AAs?$AA?9?$AAP?$AAY?$AA?$AA@ 0000000180016448     LIBCMT:winapinls.obj
 0002:00005458       ??_C@_1M@EDGINPNP@?$AAa?$AAr?$AA?9?$AAQ?$AAA?$AA?$AA@ 0000000180016458     LIBCMT:winapinls.obj
 0002:00005468       ??_C@_1M@MKDBIIJI@?$AAe?$AAs?$AA?9?$AAB?$AAO?$AA?$AA@ 0000000180016468     LIBCMT:winapinls.obj
 0002:00005478       ??_C@_1M@CPKKEBLD@?$AAe?$AAs?$AA?9?$AAS?$AAV?$AA?$AA@ 0000000180016478     LIBCMT:winapinls.obj
 0002:00005488       ??_C@_1M@NDBGMMJL@?$AAe?$AAs?$AA?9?$AAH?$AAN?$AA?$AA@ 0000000180016488     LIBCMT:winapinls.obj
 0002:00005498       ??_C@_1M@JIJIBHDP@?$AAe?$AAs?$AA?9?$AAN?$AAI?$AA?$AA@ 0000000180016498     LIBCMT:winapinls.obj
 0002:000054a8       ??_C@_1M@CGFMKEEK@?$AAe?$AAs?$AA?9?$AAP?$AAR?$AA?$AA@ 00000001800164a8     LIBCMT:winapinls.obj
 0002:000054b8       ??_C@_1O@ICJHKIIK@?$AAz?$AAh?$AA?9?$AAC?$AAH?$AAT?$AA?$AA@ 00000001800164b8     LIBCMT:winapinls.obj
 0002:000054c8       ??_C@_15CLNEJCE@?$AAs?$AAr?$AA?$AA@ 00000001800164c8     LIBCMT:winapinls.obj
 0002:000054d0       ??_C@_1M@KAHEKEIG@?$AAa?$AAf?$AA?9?$AAz?$AAa?$AA?$AA@ 00000001800164d0     LIBCMT:winapinls.obj
 0002:000054e0       ??_C@_1M@GIECOABL@?$AAa?$AAr?$AA?9?$AAa?$AAe?$AA?$AA@ 00000001800164e0     LIBCMT:winapinls.obj
 0002:000054f0       ??_C@_1M@BMLMEKGI@?$AAa?$AAr?$AA?9?$AAb?$AAh?$AA?$AA@ 00000001800164f0     LIBCMT:winapinls.obj
 0002:00005500       ??_C@_1M@DAPFDGGB@?$AAa?$AAr?$AA?9?$AAd?$AAz?$AA?$AA@ 0000000180016500     LIBCMT:winapinls.obj
 0002:00005510       ??_C@_1M@FJNKGKIG@?$AAa?$AAr?$AA?9?$AAe?$AAg?$AA?$AA@ 0000000180016510     LIBCMT:winapinls.obj
 0002:00005520       ??_C@_1M@FLGKKCLO@?$AAa?$AAr?$AA?9?$AAi?$AAq?$AA?$AA@ 0000000180016520     LIBCMT:winapinls.obj
 0002:00005530       ??_C@_1M@GNDIPALM@?$AAa?$AAr?$AA?9?$AAj?$AAo?$AA?$AA@ 0000000180016530     LIBCMT:winapinls.obj
 0002:00005540       ??_C@_1M@DDMJFMGJ@?$AAa?$AAr?$AA?9?$AAk?$AAw?$AA?$AA@ 0000000180016540     LIBCMT:winapinls.obj
 0002:00005550       ??_C@_1M@EJALMLHM@?$AAa?$AAr?$AA?9?$AAl?$AAb?$AA?$AA@ 0000000180016550     LIBCMT:winapinls.obj
 0002:00005560       ??_C@_1M@MOBDBLOC@?$AAa?$AAr?$AA?9?$AAl?$AAy?$AA?$AA@ 0000000180016560     LIBCMT:winapinls.obj
 0002:00005570       ??_C@_1M@JAOCLHDH@?$AAa?$AAr?$AA?9?$AAm?$AAa?$AA?$AA@ 0000000180016570     LIBCMT:winapinls.obj
 0002:00005580       ??_C@_1M@JHPMKJIE@?$AAa?$AAr?$AA?9?$AAo?$AAm?$AA?$AA@ 0000000180016580     LIBCMT:winapinls.obj
 0002:00005590       ??_C@_1M@OEPGHFNH@?$AAa?$AAr?$AA?9?$AAq?$AAa?$AA?$AA@ 0000000180016590     LIBCMT:winapinls.obj
 0002:000055a0       ??_C@_1M@KJDONENM@?$AAa?$AAr?$AA?9?$AAs?$AAa?$AA?$AA@ 00000001800165a0     LIBCMT:winapinls.obj
 0002:000055b0       ??_C@_1M@DMJDKLKM@?$AAa?$AAr?$AA?9?$AAs?$AAy?$AA?$AA@ 00000001800165b0     LIBCMT:winapinls.obj
 0002:000055c0       ??_C@_1M@OMFIPEDC@?$AAa?$AAr?$AA?9?$AAt?$AAn?$AA?$AA@ 00000001800165c0     LIBCMT:winapinls.obj
 0002:000055d0       ??_C@_1M@IHMHGAON@?$AAa?$AAr?$AA?9?$AAy?$AAe?$AA?$AA@ 00000001800165d0     LIBCMT:winapinls.obj
 0002:000055e0       ??_C@_1BG@KDCPGJGB@?$AAa?$AAz?$AA?9?$AAa?$AAz?$AA?9?$AAc?$AAy?$AAr?$AAl?$AA?$AA@ 00000001800165e0     LIBCMT:winapinls.obj
 0002:000055f8       ??_C@_1BG@IBCKDDOE@?$AAa?$AAz?$AA?9?$AAa?$AAz?$AA?9?$AAl?$AAa?$AAt?$AAn?$AA?$AA@ 00000001800165f8     LIBCMT:winapinls.obj
 0002:00005610       ??_C@_1M@EGPFDCPD@?$AAb?$AAe?$AA?9?$AAb?$AAy?$AA?$AA@ 0000000180016610     LIBCMT:winapinls.obj
 0002:00005620       ??_C@_1M@PCMGMCGC@?$AAb?$AAg?$AA?9?$AAb?$AAg?$AA?$AA@ 0000000180016620     LIBCMT:winapinls.obj
 0002:00005630       ??_C@_1M@BJBMFGOB@?$AAb?$AAn?$AA?9?$AAi?$AAn?$AA?$AA@ 0000000180016630     LIBCMT:winapinls.obj
 0002:00005640       ??_C@_1BG@EAKMMACD@?$AAb?$AAs?$AA?9?$AAb?$AAa?$AA?9?$AAl?$AAa?$AAt?$AAn?$AA?$AA@ 0000000180016640     LIBCMT:winapinls.obj
 0002:00005658       ??_C@_1M@KGADAODK@?$AAc?$AAa?$AA?9?$AAe?$AAs?$AA?$AA@ 0000000180016658     LIBCMT:winapinls.obj
 0002:00005668       ??_C@_1M@COAJPDHI@?$AAc?$AAs?$AA?9?$AAc?$AAz?$AA?$AA@ 0000000180016668     LIBCMT:winapinls.obj
 0002:00005678       ??_C@_1M@DHBHFONH@?$AAc?$AAy?$AA?9?$AAg?$AAb?$AA?$AA@ 0000000180016678     LIBCMT:winapinls.obj
 0002:00005688       ??_C@_1M@IMGKELGA@?$AAd?$AAa?$AA?9?$AAd?$AAk?$AA?$AA@ 0000000180016688     LIBCMT:winapinls.obj
 0002:00005698       ??_C@_1M@NNDGDNGA@?$AAd?$AAe?$AA?9?$AAa?$AAt?$AA?$AA@ 0000000180016698     LIBCMT:winapinls.obj
 0002:000056a8       ??_C@_1M@IKDBHEEM@?$AAd?$AAe?$AA?9?$AAc?$AAh?$AA?$AA@ 00000001800166a8     LIBCMT:winapinls.obj
 0002:000056b8       ??_C@_1M@GFFOJMCJ@?$AAd?$AAe?$AA?9?$AAd?$AAe?$AA?$AA@ 00000001800166b8     LIBCMT:winapinls.obj
 0002:000056c8       ??_C@_1M@MDNLKBPM@?$AAd?$AAe?$AA?9?$AAl?$AAi?$AA?$AA@ 00000001800166c8     LIBCMT:winapinls.obj
 0002:000056d8       ??_C@_1M@NJBEEJNL@?$AAd?$AAe?$AA?9?$AAl?$AAu?$AA?$AA@ 00000001800166d8     LIBCMT:winapinls.obj
 0002:000056e8       ??_C@_1O@GNNELBAP@?$AAd?$AAi?$AAv?$AA?9?$AAm?$AAv?$AA?$AA@ 00000001800166e8     LIBCMT:winapinls.obj
 0002:000056f8       ??_C@_1M@EJLEOGAE@?$AAe?$AAl?$AA?9?$AAg?$AAr?$AA?$AA@ 00000001800166f8     LIBCMT:winapinls.obj
 0002:00005708       ??_C@_1M@GMPONJN@?$AAe?$AAn?$AA?9?$AAa?$AAu?$AA?$AA@ 0000000180016708     LIBCMT:winapinls.obj
 0002:00005718       ??_C@_1M@NIDIIPGF@?$AAe?$AAn?$AA?9?$AAb?$AAz?$AA?$AA@ 0000000180016718     LIBCMT:winapinls.obj
 0002:00005728       ??_C@_1M@JEHMIMFO@?$AAe?$AAn?$AA?9?$AAc?$AAa?$AA?$AA@ 0000000180016728     LIBCMT:winapinls.obj
 0002:00005738       ??_C@_1M@IGMJCDLA@?$AAe?$AAn?$AA?9?$AAc?$AAb?$AA?$AA@ 0000000180016738     LIBCMT:winapinls.obj
 0002:00005748       ??_C@_1M@BNFIGBKG@?$AAe?$AAn?$AA?9?$AAg?$AAb?$AA?$AA@ 0000000180016748     LIBCMT:winapinls.obj
 0002:00005758       ??_C@_1M@LKIFDIGP@?$AAe?$AAn?$AA?9?$AAi?$AAe?$AA?$AA@ 0000000180016758     LIBCMT:winapinls.obj
 0002:00005768       ??_C@_1M@PJKFGCCO@?$AAe?$AAn?$AA?9?$AAj?$AAm?$AA?$AA@ 0000000180016768     LIBCMT:winapinls.obj
 0002:00005778       ??_C@_1M@KPPKEPBO@?$AAe?$AAn?$AA?9?$AAn?$AAz?$AA?$AA@ 0000000180016778     LIBCMT:winapinls.obj
 0002:00005788       ??_C@_1M@GMDGLDOB@?$AAe?$AAn?$AA?9?$AAp?$AAh?$AA?$AA@ 0000000180016788     LIBCMT:winapinls.obj
 0002:00005798       ??_C@_1M@ONGIBJNA@?$AAe?$AAn?$AA?9?$AAt?$AAt?$AA?$AA@ 0000000180016798     LIBCMT:winapinls.obj
 0002:000057a8       ??_C@_1M@LLODPCMM@?$AAe?$AAn?$AA?9?$AAu?$AAs?$AA?$AA@ 00000001800167a8     LIBCMT:winapinls.obj
 0002:000057b8       ??_C@_1M@LAKFNPAN@?$AAe?$AAn?$AA?9?$AAz?$AAa?$AA?$AA@ 00000001800167b8     LIBCMT:winapinls.obj
 0002:000057c8       ??_C@_1M@MFNHNHEO@?$AAe?$AAn?$AA?9?$AAz?$AAw?$AA?$AA@ 00000001800167c8     LIBCMT:winapinls.obj
 0002:000057d8       ??_C@_1M@EJEINPHM@?$AAe?$AAs?$AA?9?$AAa?$AAr?$AA?$AA@ 00000001800167d8     LIBCMT:winapinls.obj
 0002:000057e8       ??_C@_1M@GNKPCCJA@?$AAe?$AAs?$AA?9?$AAb?$AAo?$AA?$AA@ 00000001800167e8     LIBCMT:winapinls.obj
 0002:000057f8       ??_C@_1M@LEEGFONL@?$AAe?$AAs?$AA?9?$AAc?$AAl?$AA?$AA@ 00000001800167f8     LIBCMT:winapinls.obj
 0002:00005808       ??_C@_1M@KGPDPBDF@?$AAe?$AAs?$AA?9?$AAc?$AAo?$AA?$AA@ 0000000180016808     LIBCMT:winapinls.obj
 0002:00005818       ??_C@_1M@EIAHOHH@?$AAe?$AAs?$AA?9?$AAc?$AAr?$AA?$AA@ 0000000180016818     LIBCMT:winapinls.obj
 0002:00005828       ??_C@_1M@LLPGMBIN@?$AAe?$AAs?$AA?9?$AAd?$AAo?$AA?$AA@ 0000000180016828     LIBCMT:winapinls.obj
 0002:00005838       ??_C@_1M@DKHMKNJA@?$AAe?$AAs?$AA?9?$AAe?$AAc?$AA?$AA@ 0000000180016838     LIBCMT:winapinls.obj
 0002:00005848       ??_C@_1M@GKGFPKAP@?$AAe?$AAs?$AA?9?$AAe?$AAs?$AA?$AA@ 0000000180016848     LIBCMT:winapinls.obj
 0002:00005858       ??_C@_1M@LKHKGDLN@?$AAe?$AAs?$AA?9?$AAg?$AAt?$AA?$AA@ 0000000180016858     LIBCMT:winapinls.obj
 0002:00005868       ??_C@_1M@HEIIGGJD@?$AAe?$AAs?$AA?9?$AAh?$AAn?$AA?$AA@ 0000000180016868     LIBCMT:winapinls.obj
 0002:00005878       ??_C@_1M@FBDHPPGD@?$AAe?$AAs?$AA?9?$AAm?$AAx?$AA?$AA@ 0000000180016878     LIBCMT:winapinls.obj
 0002:00005888       ??_C@_1M@DPAGLNDH@?$AAe?$AAs?$AA?9?$AAn?$AAi?$AA?$AA@ 0000000180016888     LIBCMT:winapinls.obj
 0002:00005898       ??_C@_1M@MDGOPGDD@?$AAe?$AAs?$AA?9?$AAp?$AAa?$AA?$AA@ 0000000180016898     LIBCMT:winapinls.obj
 0002:000058a8       ??_C@_1M@EMAMGBGE@?$AAe?$AAs?$AA?9?$AAp?$AAe?$AA?$AA@ 00000001800168a8     LIBCMT:winapinls.obj
 0002:000058b8       ??_C@_1M@IBMCAOEC@?$AAe?$AAs?$AA?9?$AAp?$AAr?$AA?$AA@ 00000001800168b8     LIBCMT:winapinls.obj
 0002:000058c8       ??_C@_1M@FGMDIJED@?$AAe?$AAs?$AA?9?$AAp?$AAy?$AA?$AA@ 00000001800168c8     LIBCMT:winapinls.obj
 0002:000058d8       ??_C@_1M@IIDEOLLL@?$AAe?$AAs?$AA?9?$AAs?$AAv?$AA?$AA@ 00000001800168d8     LIBCMT:winapinls.obj
 0002:000058e8       ??_C@_1M@GAOBIPA@?$AAe?$AAs?$AA?9?$AAu?$AAy?$AA?$AA@ 00000001800168e8     LIBCMT:winapinls.obj
 0002:000058f8       ??_C@_1M@JKFFICHJ@?$AAe?$AAs?$AA?9?$AAv?$AAe?$AA?$AA@ 00000001800168f8     LIBCMT:winapinls.obj
 0002:00005908       ??_C@_1M@PNMLOJDF@?$AAe?$AAt?$AA?9?$AAe?$AAe?$AA?$AA@ 0000000180016908     LIBCMT:winapinls.obj
 0002:00005918       ??_C@_1M@GHHLIKEI@?$AAe?$AAu?$AA?9?$AAe?$AAs?$AA?$AA@ 0000000180016918     LIBCMT:winapinls.obj
 0002:00005928       ??_C@_1M@PBNONODE@?$AAf?$AAa?$AA?9?$AAi?$AAr?$AA?$AA@ 0000000180016928     LIBCMT:winapinls.obj
 0002:00005938       ??_C@_1M@JEEHPMIL@?$AAf?$AAi?$AA?9?$AAf?$AAi?$AA?$AA@ 0000000180016938     LIBCMT:winapinls.obj
 0002:00005948       ??_C@_1M@LMDCNDBA@?$AAf?$AAo?$AA?9?$AAf?$AAo?$AA?$AA@ 0000000180016948     LIBCMT:winapinls.obj
 0002:00005958       ??_C@_1M@JKEOHLDK@?$AAf?$AAr?$AA?9?$AAb?$AAe?$AA?$AA@ 0000000180016958     LIBCMT:winapinls.obj
 0002:00005968       ??_C@_1M@NOHADPMI@?$AAf?$AAr?$AA?9?$AAc?$AAa?$AA?$AA@ 0000000180016968     LIBCMT:winapinls.obj
 0002:00005978       ??_C@_1M@KDHIHAEC@?$AAf?$AAr?$AA?9?$AAc?$AAh?$AA?$AA@ 0000000180016978     LIBCMT:winapinls.obj
 0002:00005988       ??_C@_1M@MMBBFGAK@?$AAf?$AAr?$AA?9?$AAf?$AAr?$AA?$AA@ 0000000180016988     LIBCMT:winapinls.obj
 0002:00005998       ??_C@_1M@PAFNENNF@?$AAf?$AAr?$AA?9?$AAl?$AAu?$AA?$AA@ 0000000180016998     LIBCMT:winapinls.obj
 0002:000059a8       ??_C@_1M@EOHDJGDD@?$AAf?$AAr?$AA?9?$AAm?$AAc?$AA?$AA@ 00000001800169a8     LIBCMT:winapinls.obj
 0002:000059b8       ??_C@_1M@FAPLLOPF@?$AAg?$AAl?$AA?9?$AAe?$AAs?$AA?$AA@ 00000001800169b8     LIBCMT:winapinls.obj
 0002:000059c8       ??_C@_1M@FOPBFLOO@?$AAg?$AAu?$AA?9?$AAi?$AAn?$AA?$AA@ 00000001800169c8     LIBCMT:winapinls.obj
 0002:000059d8       ??_C@_1M@KBMCINPM@?$AAh?$AAe?$AA?9?$AAi?$AAl?$AA?$AA@ 00000001800169d8     LIBCMT:winapinls.obj
 0002:000059e8       ??_C@_1M@BBPHKFPJ@?$AAh?$AAi?$AA?9?$AAi?$AAn?$AA?$AA@ 00000001800169e8     LIBCMT:winapinls.obj
 0002:000059f8       ??_C@_1M@PMBNDPHD@?$AAh?$AAr?$AA?9?$AAb?$AAa?$AA?$AA@ 00000001800169f8     LIBCMT:winapinls.obj
 0002:00005a08       ??_C@_1M@BPCKOEGE@?$AAh?$AAr?$AA?9?$AAh?$AAr?$AA?$AA@ 0000000180016a08     LIBCMT:winapinls.obj
 0002:00005a18       ??_C@_1M@GACBMHKE@?$AAh?$AAu?$AA?9?$AAh?$AAu?$AA?$AA@ 0000000180016a18     LIBCMT:winapinls.obj
 0002:00005a28       ??_C@_1M@MILPAJJC@?$AAh?$AAy?$AA?9?$AAa?$AAm?$AA?$AA@ 0000000180016a28     LIBCMT:winapinls.obj
 0002:00005a38       ??_C@_1M@BABBICEC@?$AAi?$AAd?$AA?9?$AAi?$AAd?$AA?$AA@ 0000000180016a38     LIBCMT:winapinls.obj
 0002:00005a48       ??_C@_1M@BIKNHHPF@?$AAi?$AAs?$AA?9?$AAi?$AAs?$AA?$AA@ 0000000180016a48     LIBCMT:winapinls.obj
 0002:00005a58       ??_C@_1M@NMPCJPHE@?$AAi?$AAt?$AA?9?$AAc?$AAh?$AA?$AA@ 0000000180016a58     LIBCMT:winapinls.obj
 0002:00005a68       ??_C@_1M@GHKGFEDF@?$AAi?$AAt?$AA?9?$AAi?$AAt?$AA?$AA@ 0000000180016a68     LIBCMT:winapinls.obj
 0002:00005a78       ??_C@_1M@NIEJCJJA@?$AAj?$AAa?$AA?9?$AAj?$AAp?$AA?$AA@ 0000000180016a78     LIBCMT:winapinls.obj
 0002:00005a88       ??_C@_1M@JILFNBIM@?$AAk?$AAa?$AA?9?$AAg?$AAe?$AA?$AA@ 0000000180016a88     LIBCMT:winapinls.obj
 0002:00005a98       ??_C@_1M@PACPMGPH@?$AAk?$AAk?$AA?9?$AAk?$AAz?$AA?$AA@ 0000000180016a98     LIBCMT:winapinls.obj
 0002:00005aa8       ??_C@_1M@IELFGMHA@?$AAk?$AAn?$AA?9?$AAi?$AAn?$AA?$AA@ 0000000180016aa8     LIBCMT:winapinls.obj
 0002:00005ab8       ??_C@_1O@IBBJHCH@?$AAk?$AAo?$AAk?$AA?9?$AAi?$AAn?$AA?$AA@ 0000000180016ab8     LIBCMT:winapinls.obj
 0002:00005ac8       ??_C@_1M@DMHAEOGC@?$AAk?$AAo?$AA?9?$AAk?$AAr?$AA?$AA@ 0000000180016ac8     LIBCMT:winapinls.obj
 0002:00005ad8       ??_C@_1M@HBAHBIGA@?$AAk?$AAy?$AA?9?$AAk?$AAg?$AA?$AA@ 0000000180016ad8     LIBCMT:winapinls.obj
 0002:00005ae8       ??_C@_1M@KPMILCJG@?$AAl?$AAt?$AA?9?$AAl?$AAt?$AA?$AA@ 0000000180016ae8     LIBCMT:winapinls.obj
 0002:00005af8       ??_C@_1M@BDEKKCA@?$AAl?$AAv?$AA?9?$AAl?$AAv?$AA?$AA@ 0000000180016af8     LIBCMT:winapinls.obj
 0002:00005b08       ??_C@_1M@ELCKCCJJ@?$AAm?$AAi?$AA?9?$AAn?$AAz?$AA?$AA@ 0000000180016b08     LIBCMT:winapinls.obj
 0002:00005b18       ??_C@_1M@CBOOLAPA@?$AAm?$AAk?$AA?9?$AAm?$AAk?$AA?$AA@ 0000000180016b18     LIBCMT:winapinls.obj
 0002:00005b28       ??_C@_1M@GPHNBJKN@?$AAm?$AAl?$AA?9?$AAi?$AAn?$AA?$AA@ 0000000180016b28     LIBCMT:winapinls.obj
 0002:00005b38       ??_C@_1M@PABJILIG@?$AAm?$AAn?$AA?9?$AAm?$AAn?$AA?$AA@ 0000000180016b38     LIBCMT:winapinls.obj
 0002:00005b48       ??_C@_1M@FGBKKIPG@?$AAm?$AAr?$AA?9?$AAi?$AAn?$AA?$AA@ 0000000180016b48     LIBCMT:winapinls.obj
 0002:00005b58       ??_C@_1M@NDBPDDAL@?$AAm?$AAs?$AA?9?$AAb?$AAn?$AA?$AA@ 0000000180016b58     LIBCMT:winapinls.obj
 0002:00005b68       ??_C@_1M@OPIHOOPI@?$AAm?$AAs?$AA?9?$AAm?$AAy?$AA?$AA@ 0000000180016b68     LIBCMT:winapinls.obj
 0002:00005b78       ??_C@_1M@PPDBCNFM@?$AAm?$AAt?$AA?9?$AAm?$AAt?$AA?$AA@ 0000000180016b78     LIBCMT:winapinls.obj
 0002:00005b88       ??_C@_1M@KDJDKMDD@?$AAn?$AAb?$AA?9?$AAn?$AAo?$AA?$AA@ 0000000180016b88     LIBCMT:winapinls.obj
 0002:00005b98       ??_C@_1M@KFCFLMJP@?$AAn?$AAl?$AA?9?$AAb?$AAe?$AA?$AA@ 0000000180016b98     LIBCMT:winapinls.obj
 0002:00005ba8       ??_C@_1M@KPOPDDGO@?$AAn?$AAl?$AA?9?$AAn?$AAl?$AA?$AA@ 0000000180016ba8     LIBCMT:winapinls.obj
 0002:00005bb8       ??_C@_1M@LJKPEMLN@?$AAn?$AAn?$AA?9?$AAn?$AAo?$AA?$AA@ 0000000180016bb8     LIBCMT:winapinls.obj
 0002:00005bc8       ??_C@_1M@BDGHHBFL@?$AAn?$AAs?$AA?9?$AAz?$AAa?$AA?$AA@ 0000000180016bc8     LIBCMT:winapinls.obj
 0002:00005bd8       ??_C@_1M@IDEHOAP@?$AAp?$AAa?$AA?9?$AAi?$AAn?$AA?$AA@ 0000000180016bd8     LIBCMT:winapinls.obj
 0002:00005be8       ??_C@_1M@HDBKGOGH@?$AAp?$AAl?$AA?9?$AAp?$AAl?$AA?$AA@ 0000000180016be8     LIBCMT:winapinls.obj
 0002:00005bf8       ??_C@_1M@LJLLCMEH@?$AAp?$AAt?$AA?9?$AAb?$AAr?$AA?$AA@ 0000000180016bf8     LIBCMT:winapinls.obj
 0002:00005c08       ??_C@_1M@NCMONAAL@?$AAp?$AAt?$AA?9?$AAp?$AAt?$AA?$AA@ 0000000180016c08     LIBCMT:winapinls.obj
 0002:00005c18       ??_C@_1O@EAKMAJDN@?$AAq?$AAu?$AAz?$AA?9?$AAb?$AAo?$AA?$AA@ 0000000180016c18     LIBCMT:winapinls.obj
 0002:00005c28       ??_C@_1O@BHHPIGDN@?$AAq?$AAu?$AAz?$AA?9?$AAe?$AAc?$AA?$AA@ 0000000180016c28     LIBCMT:winapinls.obj
 0002:00005c38       ??_C@_1O@GBAPEKMJ@?$AAq?$AAu?$AAz?$AA?9?$AAp?$AAe?$AA?$AA@ 0000000180016c38     LIBCMT:winapinls.obj
 0002:00005c48       ??_C@_1M@CLGLEFBO@?$AAr?$AAo?$AA?9?$AAr?$AAo?$AA?$AA@ 0000000180016c48     LIBCMT:winapinls.obj
 0002:00005c58       ??_C@_1M@CEEDODME@?$AAr?$AAu?$AA?9?$AAr?$AAu?$AA?$AA@ 0000000180016c58     LIBCMT:winapinls.obj
 0002:00005c68       ??_C@_1M@HPKKKMPP@?$AAs?$AAa?$AA?9?$AAi?$AAn?$AA?$AA@ 0000000180016c68     LIBCMT:winapinls.obj
 0002:00005c78       ??_C@_1M@BKMAIGOJ@?$AAs?$AAe?$AA?9?$AAf?$AAi?$AA?$AA@ 0000000180016c78     LIBCMT:winapinls.obj
 0002:00005c88       ??_C@_1M@NDPIFLFI@?$AAs?$AAe?$AA?9?$AAn?$AAo?$AA?$AA@ 0000000180016c88     LIBCMT:winapinls.obj
 0002:00005c98       ??_C@_1M@DANKKHJ@?$AAs?$AAe?$AA?9?$AAs?$AAe?$AA?$AA@ 0000000180016c98     LIBCMT:winapinls.obj
 0002:00005ca8       ??_C@_1M@PNBLONPJ@?$AAs?$AAk?$AA?9?$AAs?$AAk?$AA?$AA@ 0000000180016ca8     LIBCMT:winapinls.obj
 0002:00005cb8       ??_C@_1M@LFMODOAL@?$AAs?$AAl?$AA?9?$AAs?$AAi?$AA?$AA@ 0000000180016cb8     LIBCMT:winapinls.obj
 0002:00005cc8       ??_C@_1O@DFKOMPG@?$AAs?$AAm?$AAa?$AA?9?$AAn?$AAo?$AA?$AA@ 0000000180016cc8     LIBCMT:winapinls.obj
 0002:00005cd8       ??_C@_1O@NDKPBNNH@?$AAs?$AAm?$AAa?$AA?9?$AAs?$AAe?$AA?$AA@ 0000000180016cd8     LIBCMT:winapinls.obj
 0002:00005ce8       ??_C@_1O@PLLKBHAB@?$AAs?$AAm?$AAj?$AA?9?$AAn?$AAo?$AA?$AA@ 0000000180016ce8     LIBCMT:winapinls.obj
 0002:00005cf8       ??_C@_1O@CLEPOGCA@?$AAs?$AAm?$AAj?$AA?9?$AAs?$AAe?$AA?$AA@ 0000000180016cf8     LIBCMT:winapinls.obj
 0002:00005d08       ??_C@_1O@DLGJGKMK@?$AAs?$AAm?$AAn?$AA?9?$AAf?$AAi?$AA?$AA@ 0000000180016d08     LIBCMT:winapinls.obj
 0002:00005d18       ??_C@_1O@OJDJGAJC@?$AAs?$AAm?$AAs?$AA?9?$AAf?$AAi?$AA?$AA@ 0000000180016d18     LIBCMT:winapinls.obj
 0002:00005d28       ??_C@_1M@BOFOGHPB@?$AAs?$AAq?$AA?9?$AAa?$AAl?$AA?$AA@ 0000000180016d28     LIBCMT:winapinls.obj
 0002:00005d38       ??_C@_1BG@LJBBIPGB@?$AAs?$AAr?$AA?9?$AAb?$AAa?$AA?9?$AAc?$AAy?$AAr?$AAl?$AA?$AA@ 0000000180016d38     LIBCMT:winapinls.obj
 0002:00005d50       ??_C@_1BG@JLBENFOE@?$AAs?$AAr?$AA?9?$AAb?$AAa?$AA?9?$AAl?$AAa?$AAt?$AAn?$AA?$AA@ 0000000180016d50     LIBCMT:winapinls.obj
 0002:00005d68       ??_C@_1BG@KODPNHE@?$AAs?$AAr?$AA?9?$AAs?$AAp?$AA?9?$AAc?$AAy?$AAr?$AAl?$AA?$AA@ 0000000180016d68     LIBCMT:winapinls.obj
 0002:00005d80       ??_C@_1BG@CIOGKHPB@?$AAs?$AAr?$AA?9?$AAs?$AAp?$AA?9?$AAl?$AAa?$AAt?$AAn?$AA?$AA@ 0000000180016d80     LIBCMT:winapinls.obj
 0002:00005d98       ??_C@_1M@NGFJLMAC@?$AAs?$AAv?$AA?9?$AAf?$AAi?$AA?$AA@ 0000000180016d98     LIBCMT:winapinls.obj
 0002:00005da8       ??_C@_1M@MPJEJAJC@?$AAs?$AAv?$AA?9?$AAs?$AAe?$AA?$AA@ 0000000180016da8     LIBCMT:winapinls.obj
 0002:00005db8       ??_C@_1M@MPNDHLFK@?$AAs?$AAw?$AA?9?$AAk?$AAe?$AA?$AA@ 0000000180016db8     LIBCMT:winapinls.obj
 0002:00005dc8       ??_C@_1O@KOHBJJI@?$AAs?$AAy?$AAr?$AA?9?$AAs?$AAy?$AA?$AA@ 0000000180016dc8     LIBCMT:winapinls.obj
 0002:00005dd8       ??_C@_1M@LDCEFHA@?$AAt?$AAa?$AA?9?$AAi?$AAn?$AA?$AA@ 0000000180016dd8     LIBCMT:winapinls.obj
 0002:00005de8       ??_C@_1M@CNJOFAK@?$AAt?$AAe?$AA?9?$AAi?$AAn?$AA?$AA@ 0000000180016de8     LIBCMT:winapinls.obj
 0002:00005df8       ??_C@_1M@GNAECACD@?$AAt?$AAh?$AA?9?$AAt?$AAh?$AA?$AA@ 0000000180016df8     LIBCMT:winapinls.obj
 0002:00005e08       ??_C@_1M@CHBIHOJO@?$AAt?$AAn?$AA?9?$AAz?$AAa?$AA?$AA@ 0000000180016e08     LIBCMT:winapinls.obj
 0002:00005e18       ??_C@_1M@GCCMIGPJ@?$AAt?$AAr?$AA?9?$AAt?$AAr?$AA?$AA@ 0000000180016e18     LIBCMT:winapinls.obj
 0002:00005e28       ??_C@_1M@CELMCNBK@?$AAt?$AAt?$AA?9?$AAr?$AAu?$AA?$AA@ 0000000180016e28     LIBCMT:winapinls.obj
 0002:00005e38       ??_C@_1M@KLMCELGA@?$AAu?$AAk?$AA?9?$AAu?$AAa?$AA?$AA@ 0000000180016e38     LIBCMT:winapinls.obj
 0002:00005e48       ??_C@_1M@EPAJJAJF@?$AAu?$AAr?$AA?9?$AAp?$AAk?$AA?$AA@ 0000000180016e48     LIBCMT:winapinls.obj
 0002:00005e58       ??_C@_1BG@GEGPMCDJ@?$AAu?$AAz?$AA?9?$AAu?$AAz?$AA?9?$AAc?$AAy?$AAr?$AAl?$AA?$AA@ 0000000180016e58     LIBCMT:winapinls.obj
 0002:00005e70       ??_C@_1BG@EGGKJILM@?$AAu?$AAz?$AA?9?$AAu?$AAz?$AA?9?$AAl?$AAa?$AAt?$AAn?$AA?$AA@ 0000000180016e70     LIBCMT:winapinls.obj
 0002:00005e88       ??_C@_1M@GFOCLFF@?$AAv?$AAi?$AA?9?$AAv?$AAn?$AA?$AA@ 0000000180016e88     LIBCMT:winapinls.obj
 0002:00005e98       ??_C@_1M@CPAMEDFI@?$AAx?$AAh?$AA?9?$AAz?$AAa?$AA?$AA@ 0000000180016e98     LIBCMT:winapinls.obj
 0002:00005ea8       ??_C@_1O@EBKIFIGN@?$AAz?$AAh?$AA?9?$AAc?$AAh?$AAs?$AA?$AA@ 0000000180016ea8     LIBCMT:winapinls.obj
 0002:00005eb8       ??_C@_1O@NMHPGANE@?$AAz?$AAh?$AA?9?$AAc?$AAh?$AAt?$AA?$AA@ 0000000180016eb8     LIBCMT:winapinls.obj
 0002:00005ec8       ??_C@_1M@LPINJOMC@?$AAz?$AAh?$AA?9?$AAc?$AAn?$AA?$AA@ 0000000180016ec8     LIBCMT:winapinls.obj
 0002:00005ed8       ??_C@_1M@OCJEJODD@?$AAz?$AAh?$AA?9?$AAh?$AAk?$AA?$AA@ 0000000180016ed8     LIBCMT:winapinls.obj
 0002:00005ee8       ??_C@_1M@DNDLJINH@?$AAz?$AAh?$AA?9?$AAm?$AAo?$AA?$AA@ 0000000180016ee8     LIBCMT:winapinls.obj
 0002:00005ef8       ??_C@_1M@MBFDNDND@?$AAz?$AAh?$AA?9?$AAs?$AAg?$AA?$AA@ 0000000180016ef8     LIBCMT:winapinls.obj
 0002:00005f08       ??_C@_1M@IMEPLEPE@?$AAz?$AAh?$AA?9?$AAt?$AAw?$AA?$AA@ 0000000180016f08     LIBCMT:winapinls.obj
 0002:00005f18       ??_C@_1M@BBGHNHJP@?$AAz?$AAu?$AA?9?$AAz?$AAa?$AA?$AA@ 0000000180016f18     LIBCMT:winapinls.obj
 0002:00005f40       ??_C@_03KHJOGHMM@exp?$AA@  0000000180016f40     LIBCMT:fpexcept.obj
 0002:00005f44       ??_C@_03JGHBODFD@pow?$AA@  0000000180016f44     LIBCMT:fpexcept.obj
 0002:00005f48       ??_C@_03MGHMBJCF@log?$AA@  0000000180016f48     LIBCMT:fpexcept.obj
 0002:00005f4c       ??_C@_05HGHHAHAP@log10?$AA@ 0000000180016f4c     LIBCMT:fpexcept.obj
 0002:00005f54       ??_C@_04COOMCNPB@sinh?$AA@ 0000000180016f54     LIBCMT:fpexcept.obj
 0002:00005f5c       ??_C@_04HPJJNFIM@cosh?$AA@ 0000000180016f5c     LIBCMT:fpexcept.obj
 0002:00005f64       ??_C@_04FJHINJAO@tanh?$AA@ 0000000180016f64     LIBCMT:fpexcept.obj
 0002:00005f6c       ??_C@_04FIHNOPOL@asin?$AA@ 0000000180016f6c     LIBCMT:fpexcept.obj
 0002:00005f74       ??_C@_04PDIFKINK@acos?$AA@ 0000000180016f74     LIBCMT:fpexcept.obj
 0002:00005f7c       ??_C@_04MLLJIGOK@atan?$AA@ 0000000180016f7c     LIBCMT:fpexcept.obj
 0002:00005f84       ??_C@_05KNGEOGJB@atan2?$AA@ 0000000180016f84     LIBCMT:fpexcept.obj
 0002:00005f8c       ??_C@_04EIAKFFMI@sqrt?$AA@ 0000000180016f8c     LIBCMT:fpexcept.obj
 0002:00005f94       ??_C@_03BLEJJJBH@sin?$AA@  0000000180016f94     LIBCMT:fpexcept.obj
 0002:00005f98       ??_C@_03LALBNOCG@cos?$AA@  0000000180016f98     LIBCMT:fpexcept.obj
 0002:00005f9c       ??_C@_03IIINPABG@tan?$AA@  0000000180016f9c     LIBCMT:fpexcept.obj
 0002:00005fa0       ??_C@_04GFPJNGEK@ceil?$AA@ 0000000180016fa0     LIBCMT:fpexcept.obj
 0002:00005fa8       ??_C@_05PBJFFIGL@floor?$AA@ 0000000180016fa8     LIBCMT:fpexcept.obj
 0002:00005fb0       ??_C@_04ODHECPBC@fabs?$AA@ 0000000180016fb0     LIBCMT:fpexcept.obj
 0002:00005fb8       ??_C@_04EHEDPDJG@modf?$AA@ 0000000180016fb8     LIBCMT:fpexcept.obj
 0002:00005fc0       ??_C@_05CEJMAHNP@ldexp?$AA@ 0000000180016fc0     LIBCMT:fpexcept.obj
 0002:00005fc8       ??_C@_05KBKMEMPO@_cabs?$AA@ 0000000180016fc8     LIBCMT:fpexcept.obj
 0002:00005fd0       ??_C@_04KEPJIHGP@fmod?$AA@ 0000000180016fd0     LIBCMT:fpexcept.obj
 0002:00005fd8       ??_C@_05GKKHEGJL@frexp?$AA@ 0000000180016fd8     LIBCMT:fpexcept.obj
 0002:00005fe0       ??_C@_03MJLDFKDL@_y0?$AA@  0000000180016fe0     LIBCMT:fpexcept.obj
 0002:00005fe4       ??_C@_03NAKIGLHK@_y1?$AA@  0000000180016fe4     LIBCMT:fpexcept.obj
 0002:00005fe8       ??_C@_03ONILCKOB@_yn?$AA@  0000000180016fe8     LIBCMT:fpexcept.obj
 0002:00005fec       ??_C@_05JGDBENOH@_logb?$AA@ 0000000180016fec     LIBCMT:fpexcept.obj
 0002:00005ff8       ??_C@_0L@KDOEJCKC@_nextafter?$AA@ 0000000180016ff8     LIBCMT:fpexcept.obj
 0002:00006010       __newctype                 0000000180017010     LIBCMT:ctype.obj
 0002:00006310       _wctype                    0000000180017310     LIBCMT:ctype.obj
 0002:00006520       __newclmap                 0000000180017520     LIBCMT:ctype.obj
 0002:000066a0       __newcumap                 00000001800176a0     LIBCMT:ctype.obj
 0002:00006820       __rg_language_count        0000000180017820     LIBCMT:getqloc.obj
 0002:00006824       __rg_country_count         0000000180017824     LIBCMT:getqloc.obj
 0002:00006b48       ??_C@_08EHJDFFNH@__based?$CI?$AA@ 0000000180017b48     LIBCMT:undname.obj
 0002:00006b58       ??_C@_07KOLFKCDI@__cdecl?$AA@ 0000000180017b58     LIBCMT:undname.obj
 0002:00006b60       ??_C@_08GHMPAG@__pascal?$AA@ 0000000180017b60     LIBCMT:undname.obj
 0002:00006b70       ??_C@_09IFJBGAPI@__stdcall?$AA@ 0000000180017b70     LIBCMT:undname.obj
 0002:00006b80       ??_C@_0L@NPHFGOKO@__thiscall?$AA@ 0000000180017b80     LIBCMT:undname.obj
 0002:00006b90       ??_C@_0L@JMKHOMEK@__fastcall?$AA@ 0000000180017b90     LIBCMT:undname.obj
 0002:00006ba0       ??_C@_0N@BCKKPABJ@__vectorcall?$AA@ 0000000180017ba0     LIBCMT:undname.obj
 0002:00006bb0       ??_C@_09HIJEGCPM@__clrcall?$AA@ 0000000180017bb0     LIBCMT:undname.obj
 0002:00006bbc       ??_C@_06GHPCKEAG@__eabi?$AA@ 0000000180017bbc     LIBCMT:undname.obj
 0002:00006bc8       ??_C@_07JOMMBBKO@__ptr64?$AA@ 0000000180017bc8     LIBCMT:undname.obj
 0002:00006bd0       ??_C@_0L@PILCLIHE@__restrict?$AA@ 0000000180017bd0     LIBCMT:undname.obj
 0002:00006be0       ??_C@_0M@GFIIJFMG@__unaligned?$AA@ 0000000180017be0     LIBCMT:undname.obj
 0002:00006bf0       ??_C@_09DHDLOLLB@restrict?$CI?$AA@ 0000000180017bf0     LIBCMT:undname.obj
 0002:00006bfa       ??_C@_00CNPNBAHC@?$AA@     0000000180017bfa     LIBCMT:undname.obj
 0002:00006bfc       ??_C@_04NIHEBCM@?5new?$AA@ 0000000180017bfc     LIBCMT:undname.obj
 0002:00006c08       ??_C@_07FPCDHGMM@?5delete?$AA@ 0000000180017c08     LIBCMT:undname.obj
 0002:00006c10       ??_C@_01NEMOKFLO@?$DN?$AA@ 0000000180017c10     LIBCMT:undname.obj
 0002:00006c14       ??_C@_02GPIOPFAK@?$DO?$DO?$AA@ 0000000180017c14     LIBCMT:undname.obj
 0002:00006c18       ??_C@_02FODMEDOG@?$DM?$DM?$AA@ 0000000180017c18     LIBCMT:undname.obj
 0002:00006c1c       ??_C@_01DCLJPIOD@?$CB?$AA@ 0000000180017c1c     LIBCMT:undname.obj
 0002:00006c20       ??_C@_02EGOFBIJA@?$DN?$DN?$AA@ 0000000180017c20     LIBCMT:undname.obj
 0002:00006c24       ??_C@_02FDNJECIE@?$CB?$DN?$AA@ 0000000180017c24     LIBCMT:undname.obj
 0002:00006c28       ??_C@_02GPECMEKF@?$FL?$FN?$AA@ 0000000180017c28     LIBCMT:undname.obj
 0002:00006c30       ??_C@_08LHJFAFGD@operator?$AA@ 0000000180017c30     LIBCMT:undname.obj
 0002:00006c3c       ??_C@_02HBOOOICD@?9?$DO?$AA@ 0000000180017c3c     LIBCMT:undname.obj
 0002:00006c40       ??_C@_01NBENCBCI@?$CK?$AA@ 0000000180017c40     LIBCMT:undname.obj
 0002:00006c44       ??_C@_02ECNGHCIF@?$CL?$CL?$AA@ 0000000180017c44     LIBCMT:undname.obj
 0002:00006c48       ??_C@_02BAABKJLB@?9?9?$AA@ 0000000180017c48     LIBCMT:undname.obj
 0002:00006c4c       ??_C@_01JOAMLHOP@?9?$AA@   0000000180017c4c     LIBCMT:undname.obj
 0002:00006c50       ??_C@_01MIFGBAGJ@?$CL?$AA@ 0000000180017c50     LIBCMT:undname.obj
 0002:00006c54       ??_C@_01HNPIGOCE@?$CG?$AA@ 0000000180017c54     LIBCMT:undname.obj
 0002:00006c58       ??_C@_03MNHNFDLC@?9?$DO?$CK?$AA@ 0000000180017c58     LIBCMT:undname.obj
 0002:00006c5c       ??_C@_01KMDKNFGN@?1?$AA@   0000000180017c5c     LIBCMT:undname.obj
 0002:00006c60       ??_C@_01FGNFDNOH@?$CF?$AA@ 0000000180017c60     LIBCMT:undname.obj
 0002:00006c64       ??_C@_01MNNFJEPP@?$DM?$AA@ 0000000180017c64     LIBCMT:undname.obj
 0002:00006c68       ??_C@_02EHCHHCKH@?$DM?$DN?$AA@ 0000000180017c68     LIBCMT:undname.obj
 0002:00006c6c       ??_C@_01PPODPGHN@?$DO?$AA@ 0000000180017c6c     LIBCMT:undname.obj
 0002:00006c70       ??_C@_02EEKDKGMJ@?$DO?$DN?$AA@ 0000000180017c70     LIBCMT:undname.obj
 0002:00006c74       ??_C@_01IHBHIGKO@?0?$AA@   0000000180017c74     LIBCMT:undname.obj
 0002:00006c78       ??_C@_02HCKGKOFO@?$CI?$CJ?$AA@ 0000000180017c78     LIBCMT:undname.obj
 0002:00006c7c       ??_C@_01PJKLJHI@?$HO?$AA@  0000000180017c7c     LIBCMT:undname.obj
 0002:00006c80       ??_C@_01JKBOJNNK@?$FO?$AA@ 0000000180017c80     LIBCMT:undname.obj
 0002:00006c84       ??_C@_01DNKMNLPK@?$HM?$AA@ 0000000180017c84     LIBCMT:undname.obj
 0002:00006c88       ??_C@_02PPKAJPJL@?$CG?$CG?$AA@ 0000000180017c88     LIBCMT:undname.obj
 0002:00006c8c       ??_C@_02NONPIBCD@?$HM?$HM?$AA@ 0000000180017c8c     LIBCMT:undname.obj
 0002:00006c90       ??_C@_02FPIMKNGF@?$CK?$DN?$AA@ 0000000180017c90     LIBCMT:undname.obj
 0002:00006c94       ??_C@_02FOEOMHFC@?$CL?$DN?$AA@ 0000000180017c94     LIBCMT:undname.obj
 0002:00006c98       ??_C@_02FKMDLLOA@?9?$DN?$AA@ 0000000180017c98     LIBCMT:undname.obj
 0002:00006c9c       ??_C@_02FJEHGPIO@?1?$DN?$AA@ 0000000180017c9c     LIBCMT:undname.obj
 0002:00006ca0       ??_C@_02FENAOKFI@?$CF?$DN?$AA@ 0000000180017ca0     LIBCMT:undname.obj
 0002:00006ca4       ??_C@_03IKFCCPFF@?$DO?$DO?$DN?$AA@ 0000000180017ca4     LIBCMT:undname.obj
 0002:00006ca8       ??_C@_03CDNPDDLA@?$DM?$DM?$DN?$AA@ 0000000180017ca8     LIBCMT:undname.obj
 0002:00006cac       ??_C@_02FGJGFEAB@?$CG?$DN?$AA@ 0000000180017cac     LIBCMT:undname.obj
 0002:00006cb0       ??_C@_02DHLNPPGH@?$HM?$DN?$AA@ 0000000180017cb0     LIBCMT:undname.obj
 0002:00006cb4       ??_C@_02MHEGNOJ@?$FO?$DN?$AA@ 0000000180017cb4     LIBCMT:undname.obj
 0002:00006cb8       ??_C@_09IFPLHPGF@?$GAvftable?8?$AA@ 0000000180017cb8     LIBCMT:undname.obj
 0002:00006cc8       ??_C@_09BLBHBJP@?$GAvbtable?8?$AA@ 0000000180017cc8     LIBCMT:undname.obj
 0002:00006cd8       ??_C@_07FEEIOKP@?$GAvcall?8?$AA@ 0000000180017cd8     LIBCMT:undname.obj
 0002:00006ce0       ??_C@_08LLFFHHDJ@?$GAtypeof?8?$AA@ 0000000180017ce0     LIBCMT:undname.obj
 0002:00006cf0       ??_C@_0BF@KDPPACIK@?$GAlocal?5static?5guard?8?$AA@ 0000000180017cf0     LIBCMT:undname.obj
 0002:00006d08       ??_C@_08OBABFOLI@?$GAstring?8?$AA@ 0000000180017d08     LIBCMT:undname.obj
 0002:00006d18       ??_C@_0BD@JDLKDPAB@?$GAvbase?5destructor?8?$AA@ 0000000180017d18     LIBCMT:undname.obj
 0002:00006d30       ??_C@_0BN@DEGPLNFK@?$GAvector?5deleting?5destructor?8?$AA@ 0000000180017d30     LIBCMT:undname.obj
 0002:00006d50       ??_C@_0BO@OBMKPJIG@?$GAdefault?5constructor?5closure?8?$AA@ 0000000180017d50     LIBCMT:undname.obj
 0002:00006d70       ??_C@_0BN@IMDCHIKM@?$GAscalar?5deleting?5destructor?8?$AA@ 0000000180017d70     LIBCMT:undname.obj
 0002:00006d90       ??_C@_0BO@PFGOCPJJ@?$GAvector?5constructor?5iterator?8?$AA@ 0000000180017d90     LIBCMT:undname.obj
 0002:00006db0       ??_C@_0BN@LFPFMEDL@?$GAvector?5destructor?5iterator?8?$AA@ 0000000180017db0     LIBCMT:undname.obj
 0002:00006dd0       ??_C@_0CE@IKBNEHA@?$GAvector?5vbase?5constructor?5iterat@ 0000000180017dd0     LIBCMT:undname.obj
 0002:00006df8       ??_C@_0BL@NILFHHPC@?$GAvirtual?5displacement?5map?8?$AA@ 0000000180017df8     LIBCMT:undname.obj
 0002:00006e18       ??_C@_0CB@JONCMFFK@?$GAeh?5vector?5constructor?5iterator?8@ 0000000180017e18     LIBCMT:undname.obj
 0002:00006e40       ??_C@_0CA@GCEOPDGL@?$GAeh?5vector?5destructor?5iterator?8?$AA@ 0000000180017e40     LIBCMT:undname.obj
 0002:00006e60       ??_C@_0CH@OOJPLCPH@?$GAeh?5vector?5vbase?5constructor?5ite@ 0000000180017e60     LIBCMT:undname.obj
 0002:00006e88       ??_C@_0BL@LLKPOHJI@?$GAcopy?5constructor?5closure?8?$AA@ 0000000180017e88     LIBCMT:undname.obj
 0002:00006ea8       ??_C@_0BA@KBCDOMBN@?$GAudt?5returning?8?$AA@ 0000000180017ea8     LIBCMT:undname.obj
 0002:00006eb8       ??_C@_03KLGMFNMG@?$GAEH?$AA@ 0000000180017eb8     LIBCMT:undname.obj
 0002:00006ebc       ??_C@_05KHLCHHI@?$GARTTI?$AA@ 0000000180017ebc     LIBCMT:undname.obj
 0002:00006ec8       ??_C@_0BA@KKLDJDLB@?$GAlocal?5vftable?8?$AA@ 0000000180017ec8     LIBCMT:undname.obj
 0002:00006ed8       ??_C@_0CE@IIHCMGGL@?$GAlocal?5vftable?5constructor?5closu@ 0000000180017ed8     LIBCMT:undname.obj
 0002:00006efc       ??_C@_06FHBGPFGH@?5new?$FL?$FN?$AA@ 0000000180017efc     LIBCMT:undname.obj
 0002:00006f08       ??_C@_09LBNFPBCA@?5delete?$FL?$FN?$AA@ 0000000180017f08     LIBCMT:undname.obj
 0002:00006f18       ??_C@_0P@HJKNJFNN@?$GAomni?5callsig?8?$AA@ 0000000180017f18     LIBCMT:undname.obj
 0002:00006f28       ??_C@_0BL@CNOONJFP@?$GAplacement?5delete?5closure?8?$AA@ 0000000180017f28     LIBCMT:undname.obj
 0002:00006f48       ??_C@_0BN@CKNJLHMB@?$GAplacement?5delete?$FL?$FN?5closure?8?$AA@ 0000000180017f48     LIBCMT:undname.obj
 0002:00006f68       ??_C@_0CG@CFDHKGGD@?$GAmanaged?5vector?5constructor?5iter@ 0000000180017f68     LIBCMT:undname.obj
 0002:00006f90       ??_C@_0CF@IMGKMJNO@?$GAmanaged?5vector?5destructor?5itera@ 0000000180017f90     LIBCMT:undname.obj
 0002:00006fb8       ??_C@_0CG@HLDDJMAG@?$GAeh?5vector?5copy?5constructor?5iter@ 0000000180017fb8     LIBCMT:undname.obj
 0002:00006fe0       ??_C@_0CM@FCBBDIGB@?$GAeh?5vector?5vbase?5copy?5constructo@ 0000000180017fe0     LIBCMT:undname.obj
 0002:00007010       ??_C@_0BL@CLIPGLGB@?$GAdynamic?5initializer?5for?5?8?$AA@ 0000000180018010     LIBCMT:undname.obj
 0002:00007030       ??_C@_0CB@PDBIFEP@?$GAdynamic?5atexit?5destructor?5for?5?8@ 0000000180018030     LIBCMT:undname.obj
 0002:00007058       ??_C@_0CD@CGAJBKEJ@?$GAvector?5copy?5constructor?5iterato@ 0000000180018058     LIBCMT:undname.obj
 0002:00007080       ??_C@_0CJ@GJELGAMM@?$GAvector?5vbase?5copy?5constructor?5i@ 0000000180018080     LIBCMT:undname.obj
 0002:000070b0       ??_C@_0CL@FGIJHLCE@?$GAmanaged?5vector?5copy?5constructor@ 00000001800180b0     LIBCMT:undname.obj
 0002:000070e0       ??_C@_0BM@PMGGMLDN@?$GAlocal?5static?5thread?5guard?8?$AA@ 00000001800180e0     LIBCMT:undname.obj
 0002:00007100       ??_C@_0BC@DAFEJGAK@?5Type?5Descriptor?8?$AA@ 0000000180018100     LIBCMT:undname.obj
 0002:00007118       ??_C@_0BM@LDKODKLH@?5Base?5Class?5Descriptor?5at?5?$CI?$AA@ 0000000180018118     LIBCMT:undname.obj
 0002:00007138       ??_C@_0BD@LGICGFMM@?5Base?5Class?5Array?8?$AA@ 0000000180018138     LIBCMT:undname.obj
 0002:00007150       ??_C@_0BN@MECKDCOJ@?5Class?5Hierarchy?5Descriptor?8?$AA@ 0000000180018150     LIBCMT:undname.obj
 0002:00007170       ??_C@_0BK@CFCOFLF@?5Complete?5Object?5Locator?8?$AA@ 0000000180018170     LIBCMT:undname.obj
 0002:00007190       ??_C@_1BG@GOEBHBDC@?$AAU?$AAS?$AAE?$AAR?$AA3?$AA2?$AA?4?$AAD?$AAL?$AAL?$AA?$AA@ 0000000180018190     LIBCMT:crtmboxw.obj
 0002:000071a8       ??_C@_0M@DLDCCGNP@MessageBoxW?$AA@ 00000001800181a8     LIBCMT:crtmboxw.obj
 0002:000071b8       ??_C@_0BA@HNOPNCHB@GetActiveWindow?$AA@ 00000001800181b8     LIBCMT:crtmboxw.obj
 0002:000071c8       ??_C@_0BD@HHGDFDBJ@GetLastActivePopup?$AA@ 00000001800181c8     LIBCMT:crtmboxw.obj
 0002:000071e0       ??_C@_0BK@DEKFELLI@GetUserObjectInformationW?$AA@ 00000001800181e0     LIBCMT:crtmboxw.obj
 0002:00007200       ??_C@_0BI@DFKBFLJE@GetProcessWindowStation?$AA@ 0000000180018200     LIBCMT:crtmboxw.obj
 0002:00007218       ??_C@_06PGGFOGJG@1?$CDSNAN?$AA@ 0000000180018218     LIBCMT:x10fout.obj
 0002:00007220       ??_C@_05PHHOCPM@1?$CDIND?$AA@ 0000000180018220     LIBCMT:x10fout.obj
 0002:00007228       ??_C@_05DNEBIAHO@1?$CDINF?$AA@ 0000000180018228     LIBCMT:x10fout.obj
 0002:00007230       ??_C@_06IMKFLFPG@1?$CDQNAN?$AA@ 0000000180018230     LIBCMT:x10fout.obj
 0002:00007238       ??_C@_1BA@BALFACEM@?$AAC?$AAO?$AAN?$AAO?$AAU?$AAT?$AA$?$AA?$AA@ 0000000180018238     LIBCMT:initcon.obj
 0002:00007250       ??_C@_0ED@MJOKLHCC@Second?5argument?5should?5be?5either@ 0000000180018250     buffertools.obj
 0002:00007298       ??_C@_0DB@FCMDGBFL@Odd?5string?5length?0?5this?5is?5not?5h@ 0000000180018298     buffertools.obj
 0002:000072d0       ??_C@_0BO@FJIJLEAN@This?5is?5not?5hexadecimal?5data?4?$AA@ 00000001800182d0     buffertools.obj
 0002:000072f0       ??_C@_0DH@BDNALMAD@Argument?5?$CD?$CFlu?5is?5neither?5a?5strin@ 00000001800182f0     buffertools.obj
 0002:00007330       ??_C@_0JB@CFACAOCN@Congratulations?$CB?5You?5have?5run?5in@ 0000000180018330     buffertools.obj
 0002:000073c4       ??_C@_05MEHLAELG@clear?$AA@ 00000001800183c4     buffertools.obj
 0002:000073d0       ??_C@_07DIJKPEDD@compare?$AA@ 00000001800183d0     buffertools.obj
 0002:000073d8       ??_C@_06CMLIEHFC@concat?$AA@ 00000001800183d8     buffertools.obj
 0002:000073e0       ??_C@_06IMBEHKAP@equals?$AA@ 00000001800183e0     buffertools.obj
 0002:000073e8       ??_C@_04OBAECEGJ@fill?$AA@ 00000001800183e8     buffertools.obj
 0002:000073f0       ??_C@_07JIPEMMDM@fromHex?$AA@ 00000001800183f0     buffertools.obj
 0002:000073f8       ??_C@_07KKKNJHGA@indexOf?$AA@ 00000001800183f8     buffertools.obj
 0002:00007400       ??_C@_07KOIEOCCE@reverse?$AA@ 0000000180018400     buffertools.obj
 0002:00007408       ??_C@_05DCLGHLPA@toHex?$AA@ 0000000180018408     buffertools.obj
 0002:00007410       ??_C@_0BC@LONDBNMJ@?4?4?2buffertools?4cc?$AA@ 0000000180018410     buffertools.obj
 0002:00007428       ??_C@_0M@HCABIGBN@buffertools?$AA@ 0000000180018428     buffertools.obj
 0002:00007438       ??_C@_0CE@BJBMGODN@Argument?5should?5be?5a?5buffer?5obje@ 0000000180018438     buffertools.obj
 0002:00007460       ??_C@_0CO@NBAACCEE@Second?5argument?5must?5be?5a?5string@ 0000000180018460     buffertools.obj
 0002:00007490       ??_C@_0BA@JFNIOLAK@string?5too?5long?$AA@ 0000000180018490     buffertools.obj
 0002:000075b8       ??_C@_08HCOMDCCD@iojs?4exe?$AA@ 00000001800185b8     win_delay_load_hook.obj
 0002:000075c8       ??_C@_08JDDNMFDB@node?4exe?$AA@ 00000001800185c8     win_delay_load_hook.obj
 0002:000075e0       _load_config_used          00000001800185e0     LIBCMT:loadcfg.obj
 0002:000076d8       ??_R1A@?0A@EA@exception@std@@8 00000001800186d8     libcpmt:xthrow.obj
 0002:00007700       ??_R3exception@std@@8      0000000180018700     libcpmt:xthrow.obj
 0002:00007718       ??_R2exception@std@@8      0000000180018718     libcpmt:xthrow.obj
 0002:00007728       ??_R4bad_alloc@std@@6B@    0000000180018728     libcpmt:xthrow.obj
 0002:00007750       ??_R3bad_alloc@std@@8      0000000180018750     libcpmt:xthrow.obj
 0002:00007768       ??_R2bad_alloc@std@@8      0000000180018768     libcpmt:xthrow.obj
 0002:00007780       ??_R1A@?0A@EA@bad_alloc@std@@8 0000000180018780     libcpmt:xthrow.obj
 0002:000077a8       ??_R4logic_error@std@@6B@  00000001800187a8     libcpmt:xthrow.obj
 0002:000077d0       ??_R3logic_error@std@@8    00000001800187d0     libcpmt:xthrow.obj
 0002:000077e8       ??_R2logic_error@std@@8    00000001800187e8     libcpmt:xthrow.obj
 0002:00007800       ??_R1A@?0A@EA@logic_error@std@@8 0000000180018800     libcpmt:xthrow.obj
 0002:00007828       ??_R4length_error@std@@6B@ 0000000180018828     libcpmt:xthrow.obj
 0002:00007850       ??_R3length_error@std@@8   0000000180018850     libcpmt:xthrow.obj
 0002:00007868       ??_R2length_error@std@@8   0000000180018868     libcpmt:xthrow.obj
 0002:00007888       ??_R1A@?0A@EA@length_error@std@@8 0000000180018888     libcpmt:xthrow.obj
 0002:000078b0       ??_R4type_info@@6B@        00000001800188b0     LIBCMT:typinfo.obj
 0002:000078d8       ??_R3type_info@@8          00000001800188d8     LIBCMT:typinfo.obj
 0002:000078f0       ??_R2type_info@@8          00000001800188f0     LIBCMT:typinfo.obj
 0002:00007900       ??_R1A@?0A@EA@type_info@@8 0000000180018900     LIBCMT:typinfo.obj
 0002:00007928       ??_R4exception@std@@6B@    0000000180018928     LIBCMT:stdexcpt.obj
 0002:00007950       __rtc_iaa                  0000000180018950     LIBCMT:initsect.obj
 0002:00007958       __rtc_izz                  0000000180018958     LIBCMT:initsect.obj
 0002:00007960       __rtc_taa                  0000000180018960     LIBCMT:initsect.obj
 0002:00007968       __rtc_tzz                  0000000180018968     LIBCMT:initsect.obj
 0002:00008658       _TI2?AVbad_alloc@std@@     0000000180019658     libcpmt:xthrow.obj
 0002:00008678       _CTA2?AVbad_alloc@std@@    0000000180019678     libcpmt:xthrow.obj
 0002:00008690       _CT??_R0?AVbad_alloc@std@@@8??0bad_alloc@std@@QEAA@AEBV01@@Z24 0000000180019690     libcpmt:xthrow.obj
 0002:000086b8       _CT??_R0?AVexception@std@@@8??0exception@std@@QEAA@AEBV01@@Z24 00000001800196b8     libcpmt:xthrow.obj
 0002:000086e0       _CT??_R0?AVlogic_error@std@@@8??0logic_error@std@@QEAA@AEBV01@@Z24 00000001800196e0     libcpmt:xthrow.obj
 0002:00008708       _TI3?AVlength_error@std@@  0000000180019708     libcpmt:xthrow.obj
 0002:00008728       _CTA3?AVlength_error@std@@ 0000000180019728     libcpmt:xthrow.obj
 0002:00008748       _CT??_R0?AVlength_error@std@@@8??0length_error@std@@QEAA@AEBV01@@Z24 0000000180019748     libcpmt:xthrow.obj
 0002:0000876c       __DELAY_IMPORT_DESCRIPTOR_node_exe 000000018001976c     node:node.exe
 0002:0000878c       __NULL_DELAY_IMPORT_DESCRIPTOR 000000018001978c     node:node.exe
 0002:00008890       \177node_NULL_THUNK_DATA_DLN 0000000180019890     node:node.exe
 0002:00008f18       \177node_NULL_THUNK_DATA_DLB 0000000180019f18     node:node.exe
 0002:0000905c       __IMPORT_DESCRIPTOR_KERNEL32 000000018001a05c     kernel32:KERNEL32.dll
 0002:00009070       __NULL_IMPORT_DESCRIPTOR   000000018001a070     kernel32:KERNEL32.dll
 0003:00000000       __abort_behavior           000000018001b000     LIBCMT:abort.obj
 0003:00000010       _fltused                   000000018001b010     LIBCMT:fpinit.obj
 0003:00000014       _ldused                    000000018001b014     LIBCMT:fpinit.obj
 0003:00000018       __security_cookie          000000018001b018     LIBCMT:gs_cookie.obj
 0003:00000020       __security_cookie_complement 000000018001b020     LIBCMT:gs_cookie.obj
 0003:00000028       __isa_available            000000018001b028     LIBCMT:cpu_disp.obj
 0003:0000002c       __isa_enabled              000000018001b02c     LIBCMT:cpu_disp.obj
 0003:00000038       __nullstring               000000018001b038     LIBCMT:output.obj
 0003:00000040       __wnullstring              000000018001b040     LIBCMT:output.obj
 0003:000001c0       _mbctype                   000000018001b1c0     LIBCMT:mbctype.obj
 0003:000002d0       _mbcasemap                 000000018001b2d0     LIBCMT:mbctype.obj
 0003:000003d0       __initialmbcinfo           000000018001b3d0     LIBCMT:mbctype.obj
 0003:000006f0       __ptmbcinfo                000000018001b6f0     LIBCMT:mbctype.obj
 0003:000006f8       __flsindex                 000000018001b6f8     LIBCMT:tidtable.obj
 0003:000006fc       __mb_cur_max               000000018001b6fc     LIBCMT:nlsdata.obj
 0003:00000700       __wclocalestr              000000018001b700     LIBCMT:nlsdata.obj
 0003:00000710       __lc_time_c                000000018001b710     LIBCMT:nlsdata.obj
 0003:000009d0       __ptlocinfo                000000018001b9d0     LIBCMT:nlsdata.obj
 0003:000009e0       __initiallocinfo           000000018001b9e0     LIBCMT:nlsdata.obj
 0003:00000b38       __initiallocalestructinfo  000000018001bb38     LIBCMT:nlsdata.obj
 0003:00000b48       __globallocalestatus       000000018001bb48     LIBCMT:glstatus.obj
 0003:00000b60       __badioinfo                000000018001bb60     LIBCMT:ioinit.obj
 0003:00000bc0       _cfltcvt_tab               000000018001bbc0     LIBCMT:cmiscdat.obj
 0003:00001020       _matherr_flag              000000018001c020     LIBCMT:matherr.obj
 0003:00001030       _iob                       000000018001c030     LIBCMT:_file.obj
 0003:000013f0       __lconv_c                  000000018001c3f0     LIBCMT:lconv.obj
 0003:00001488       __lconv_static_decimal     000000018001c488     LIBCMT:lconv.obj
 0003:0000148c       __lconv_static_W_decimal   000000018001c48c     LIBCMT:lconv.obj
 0003:00001490       __lconv                    000000018001c490     LIBCMT:lconv.obj
 0003:00001498       _pctype                    000000018001c498     LIBCMT:ctype.obj
 0003:000014a0       _pwctype                   000000018001c4a0     LIBCMT:ctype.obj
 0003:000014b0       _d_inf                     000000018001c4b0     LIBCMT:util.obj
 0003:000014b8       _d_ind                     000000018001c4b8     LIBCMT:util.obj
 0003:000014c0       _d_max                     000000018001c4c0     LIBCMT:util.obj
 0003:000014c8       _d_min                     000000018001c4c8     LIBCMT:util.obj
 0003:000014d0       _d_mzero                   000000018001c4d0     LIBCMT:util.obj
 0003:00001508       _confh                     000000018001c508     LIBCMT:initcon.obj
 0003:00001510       _pow10pos                  000000018001c510     LIBCMT:constpow.obj
 0003:00001670       _pow10neg                  000000018001c670     LIBCMT:constpow.obj
 0003:000017d0       _HUGE                      000000018001c7d0     LIBCMT:huge.obj
 0003:00001820       __pfnDliNotifyHook2        000000018001c820     win_delay_load_hook.obj
 0003:00001828       ??_R0?AVbad_alloc@std@@@8  000000018001c828     libcpmt:xthrow.obj
 0003:00001850       ??_R0?AVexception@std@@@8  000000018001c850     libcpmt:xthrow.obj
 0003:00001878       ??_R0?AVlogic_error@std@@@8 000000018001c878     libcpmt:xthrow.obj
 0003:000018a0       ??_R0?AVlength_error@std@@@8 000000018001c8a0     libcpmt:xthrow.obj
 0003:000018c8       ??_R0?AVtype_info@@@8      000000018001c8c8     LIBCMT:typinfo.obj
 0003:000018e8       __imp_?Length@Buffer@node@@YA_KV?$Local@VObject@v8@@@v8@@@Z 000000018001c8e8     node:node.exe
 0003:000018f0       __imp_?Data@Buffer@node@@YAPEADV?$Local@VObject@v8@@@v8@@@Z 000000018001c8f0     node:node.exe
 0003:000018f8       __imp_?HasInstance@Buffer@node@@YA_NV?$Local@VValue@v8@@@v8@@@Z 000000018001c8f8     node:node.exe
 0003:00001900       __imp_?HasInstance@Buffer@node@@YA_NV?$Local@VObject@v8@@@v8@@@Z 000000018001c900     node:node.exe
 0003:00001908       __imp_?New@Buffer@node@@YA?AV?$MaybeLocal@VObject@v8@@@v8@@PEAVIsolate@4@_K@Z 000000018001c908     node:node.exe
 0003:00001910       __imp_node_module_register 000000018001c910     node:node.exe
 0003:00001918       __imp_?ToLocalEmpty@V8@v8@@CAXXZ 000000018001c918     node:node.exe
 0003:00001920       __imp_?Escape@EscapableHandleScope@v8@@AEAAPEAPEAVObject@internal@2@PEAPEAV342@@Z 000000018001c920     node:node.exe
 0003:00001928       __imp_??0EscapableHandleScope@v8@@QEAA@PEAVIsolate@1@@Z 000000018001c928     node:node.exe
 0003:00001930       __imp_?Int32Value@Value@v8@@QEBAHXZ 000000018001c930     node:node.exe
 0003:00001938       __imp_?IsInt32@Value@v8@@QEBA_NXZ 000000018001c938     node:node.exe
 0003:00001940       __imp_?GetFunction@FunctionTemplate@v8@@QEAA?AV?$Local@VFunction@v8@@@2@XZ 000000018001c940     node:node.exe
 0003:00001948       __imp_?New@FunctionTemplate@v8@@SA?AV?$Local@VFunctionTemplate@v8@@@2@PEAVIsolate@2@P6AXAEBV?$FunctionCallbackInfo@VValue@v8@@@2@@ZV?$Local@VValue@v8@@@2@V?$Local@VSignature@v8@@@2@H@Z 000000018001c948     node:node.exe
 0003:00001950       __imp_?Error@Exception@v8@@SA?AV?$Local@VValue@v8@@@2@V?$Local@VString@v8@@@2@@Z 000000018001c950     node:node.exe
 0003:00001958       __imp_?TypeError@Exception@v8@@SA?AV?$Local@VValue@v8@@@2@V?$Local@VString@v8@@@2@@Z 000000018001c958     node:node.exe
 0003:00001960       __imp_??1Utf8Value@String@v8@@QEAA@XZ 000000018001c960     node:node.exe
 0003:00001968       __imp_??0Utf8Value@String@v8@@QEAA@V?$Local@VValue@v8@@@2@@Z 000000018001c968     node:node.exe
 0003:00001970       __imp_?NewFromUtf8@String@v8@@SA?AV?$Local@VString@v8@@@2@PEAVIsolate@2@PEBDW4NewStringType@12@H@Z 000000018001c970     node:node.exe
 0003:00001978       __imp_?Utf8Length@String@v8@@QEBAHXZ 000000018001c978     node:node.exe
 0003:00001980       __imp_??1HandleScope@v8@@QEAA@XZ 000000018001c980     node:node.exe
 0003:00001988       __imp_??0HandleScope@v8@@QEAA@PEAVIsolate@1@@Z 000000018001c988     node:node.exe
 0003:00001990       __imp_?Set@Object@v8@@QEAA_NV?$Local@VValue@v8@@@2@0@Z 000000018001c990     node:node.exe
 0003:00001998       __imp_?New@Integer@v8@@SA?AV?$Local@VInteger@v8@@@2@PEAVIsolate@2@H@Z 000000018001c998     node:node.exe
 0003:000019a0       __imp_?SetName@Function@v8@@QEAAXV?$Local@VString@v8@@@2@@Z 000000018001c9a0     node:node.exe
 0003:000019a8       __imp_?ThrowException@Isolate@v8@@QEAA?AV?$Local@VValue@v8@@@2@V32@@Z 000000018001c9a8     node:node.exe
 0003:000019b0       __imp_?GetCurrent@Isolate@v8@@SAPEAV12@XZ 000000018001c9b0     node:node.exe
 0003:000019b8       __imp_?ToObject@Value@v8@@QEBA?AV?$Local@VObject@v8@@@2@XZ 000000018001c9b8     node:node.exe
 0003:000019c0       __imp_?ToString@Value@v8@@QEBA?AV?$Local@VString@v8@@@2@XZ 000000018001c9c0     node:node.exe
 0003:000019c8       \177node_NULL_THUNK_DATA_DLA 000000018001c9c8     node:node.exe
 0003:000019e0       __hmod__node_exe           000000018001c9e0     node:node.exe
 0003:000019f8       _aenvptr                   000000018001c9f8     LIBCMT:dllcrt0.obj
 0003:00001a00       _wenvptr                   000000018001ca00     LIBCMT:dllcrt0.obj
 0003:00001a08       __fastflag                 000000018001ca08     LIBCMT:fpinit.obj
 0003:00001f88       _C_Exit_Done               000000018001cf88     LIBCMT:crt0dat.obj
 0003:00001f8c       __argc                     000000018001cf8c     LIBCMT:crt0dat.obj
 0003:00001f90       __argv                     000000018001cf90     LIBCMT:crt0dat.obj
 0003:00001f98       __wargv                    000000018001cf98     LIBCMT:crt0dat.obj
 0003:00001fa0       _environ                   000000018001cfa0     LIBCMT:crt0dat.obj
 0003:00001fa8       _wenviron                  000000018001cfa8     LIBCMT:crt0dat.obj
 0003:00001fb0       _pgmptr                    000000018001cfb0     LIBCMT:crt0dat.obj
 0003:00001fb8       _wpgmptr                   000000018001cfb8     LIBCMT:crt0dat.obj
 0003:00001fc0       _umaskval                  000000018001cfc0     LIBCMT:crt0dat.obj
 0003:00001fc4       _exitflag                  000000018001cfc4     LIBCMT:crt0dat.obj
 0003:00001fc8       _C_Termination_Done        000000018001cfc8     LIBCMT:crt0dat.obj
 0003:00001fd0       __winitenv                 000000018001cfd0     LIBCMT:crt0dat.obj
 0003:00001fd8       __initenv                  000000018001cfd8     LIBCMT:crt0dat.obj
 0003:00002008       __pInvalidArgHandler       000000018001d008     LIBCMT:invarg.obj
 0003:00002010       __favor                    000000018001d010     LIBCMT:cpu_disp.obj
 0003:00002014       _maxwait                   000000018001d014     LIBCMT:crtheap.obj
 0003:00002018       __pPurecall                000000018001d018     LIBCMT:inithelp.obj
 0003:00002020       ?_pnhHeap@@3P6AH_K@ZEA     000000018001d020     LIBCMT:handler.obj
 0003:00002028       __mbcodepage               000000018001d028     LIBCMT:mbctype.obj
 0003:0000202c       __ismbcodepage             000000018001d02c     LIBCMT:mbctype.obj
 0003:00002030       __mbulinfo                 000000018001d030     LIBCMT:mbctype.obj
 0003:00002040       __mblocalename             000000018001d040     LIBCMT:mbctype.obj
 0003:0000204c       __locale_changed           000000018001d04c     LIBCMT:wsetloca.obj
 0003:00002050       _crtheap                   000000018001d050     LIBCMT:heapinit.obj
 0003:00002060       __pioinfo                  000000018001d060     LIBCMT:ioinit.obj
 0003:00002368       ?g_OutOfMemoryExceptionCallback@@3P6APEAXXZEA 000000018001d368     LIBCMT:frame.obj
 0003:00002370       ?__pInconsistency@@3P6AXXZEA 000000018001d370     LIBCMT:hooks.obj
 0003:000025c0       __app_type                 000000018001d5c0     LIBCMT:crt0msg.obj
 0003:00002c00       _stdbuf                    000000018001dc00     LIBCMT:_sftbuf.obj
 0003:00002c18       _cflush                    000000018001dc18     LIBCMT:_file.obj
 0003:00002c28       _newmode                   000000018001dc28     LIBCMT:_newmode.obj
 0003:00002c2c       __lconv_static_null        000000018001dc2c     LIBCMT:lconv.obj
 0003:00002c30       __lconv_static_W_null      000000018001dc30     LIBCMT:lconv.obj
 0003:00002c38       ?m_pGetParameter@UnDecorator@@0P6APEADJ@ZEA 000000018001dc38     LIBCMT:undname.obj
 0003:00002c40       ?pArgList@UnDecorator@@0PEAVReplicator@@EA 000000018001dc40     LIBCMT:undname.obj
 0003:00002c48       ?pZNameList@UnDecorator@@0PEAVReplicator@@EA 000000018001dc48     LIBCMT:undname.obj
 0003:00002c50       ?pTemplateArgList@UnDecorator@@0PEAVReplicator@@EA 000000018001dc50     LIBCMT:undname.obj
 0003:00002c58       ?gName@UnDecorator@@0PEBDEB 000000018001dc58     LIBCMT:undname.obj
 0003:00002c60       ?name@UnDecorator@@0PEBDEB 000000018001dc60     LIBCMT:undname.obj
 0003:00002c68       ?outputString@UnDecorator@@0PEADEA 000000018001dc68     LIBCMT:undname.obj
 0003:00002c70       ?maxStringLength@UnDecorator@@0HA 000000018001dc70     LIBCMT:undname.obj
 0003:00002c74       ?disableFlags@UnDecorator@@0KA 000000018001dc74     LIBCMT:undname.obj
 0003:00002c78       ?fExplicitTemplateParams@UnDecorator@@0_NA 000000018001dc78     LIBCMT:undname.obj
 0003:00002c79       ?fGetTemplateArgumentList@UnDecorator@@0_NA 000000018001dc79     LIBCMT:undname.obj
 0003:00002ca8       _outputformat              000000018001dca8     LIBCMT:outputformat.obj
 0003:00002cac       __error_mode               000000018001dcac     LIBCMT:errmode.obj
 0003:00002cd8       __pfnDliFailureHook2       000000018001dcd8     DelayImp:delayhk1.obj
 0003:00002ce0       ?id@?$num_put@_WV?$back_insert_iterator@V?$basic_string@_WU?$char_traits@_W@std@@V?$allocator@_W@2@@std@@@std@@@std@@2V0locale@2@A 000000018001dce0     buffertools.obj
 0003:00002ce8       ?_System_object@?$_Error_objects@H@std@@2V_System_error_category@2@A 000000018001dce8     buffertools.obj
 0003:00002cf0       ?id@?$numpunct@_W@std@@2V0locale@2@A 000000018001dcf0     buffertools.obj
 0003:00002cf8       ?id@?$num_put@DV?$back_insert_iterator@V?$basic_string@DU?$char_traits@D@std@@V?$allocator@D@2@@std@@@std@@@std@@2V0locale@2@A 000000018001dcf8     buffertools.obj
 0003:00002d00       ?_Iostream_object@?$_Error_objects@H@std@@2V_Iostream_error_category@2@A 000000018001dd00     buffertools.obj
 0003:00002d10       ?_Generic_object@?$_Error_objects@H@std@@2V_Generic_error_category@2@A 000000018001dd10     buffertools.obj
 0003:00002d18       ?id@?$numpunct@D@std@@2V0locale@2@A 000000018001dd18     buffertools.obj
 0003:00002d20       __piob                     000000018001dd20     <common>
 0003:00002d28       _nstream                   000000018001dd28     <common>
 0003:00002d40       _bufin                     000000018001dd40     <common>
 0003:00003d40       _debugger_hook_dummy       000000018001ed40     <common>
 0003:00003d60       encodedKERNEL32Functions   000000018001ed60     <common>
 0003:00003e68       _nhandle                   000000018001ee68     <common>
 0003:00003e70       __dyn_tls_init_callback    000000018001ee70     <common>
 0003:00003e78       __onexitend                000000018001ee78     <common>
 0003:00003e80       __onexitbegin              000000018001ee80     <common>
 0003:00003e88       __mbctype_initialized      000000018001ee88     <common>
 0003:00003e8c       __env_initialized          000000018001ee8c     <common>
 0003:00003e90       _acmdln                    000000018001ee90     <common>

 entry point at        0001:00003630

 Static symbols

 0000:fffde000       .debug$S                   0000000180000000     node:node.exe
 0000:fffde000       .debug$S                   0000000180000000     kernel32:KERNEL32.dll
 0000:fffde000       .debug$S                   0000000180000000     kernel32:KERNEL32.dll
 0000:fffde000       .debug$S                   0000000180000000     kernel32:KERNEL32.dll
 0000:fffde000       .debug$S                   0000000180000000     kernel32:KERNEL32.dll
 0000:fffde000       .debug$S                   0000000180000000     kernel32:KERNEL32.dll
 0000:fffde000       .debug$S                   0000000180000000     kernel32:KERNEL32.dll
 0000:fffde000       .debug$S                   0000000180000000     kernel32:KERNEL32.dll
 0000:fffde000       .debug$S                   0000000180000000     kernel32:KERNEL32.dll
 0000:fffde000       .debug$S                   0000000180000000     kernel32:KERNEL32.dll
 0000:fffde000       .debug$S                   0000000180000000     kernel32:KERNEL32.dll
 0000:fffde000       .debug$S                   0000000180000000     kernel32:KERNEL32.dll
 0000:fffde000       .debug$S                   0000000180000000     kernel32:KERNEL32.dll
 0000:fffde000       .debug$S                   0000000180000000     kernel32:KERNEL32.dll
 0000:fffde000       .debug$S                   0000000180000000     kernel32:KERNEL32.dll
 0000:fffde000       .debug$S                   0000000180000000     kernel32:KERNEL32.dll
 0000:fffde000       .debug$S                   0000000180000000     kernel32:KERNEL32.dll
 0000:fffde000       .debug$S                   0000000180000000     kernel32:KERNEL32.dll
 0000:fffde000       .debug$S                   0000000180000000     kernel32:KERNEL32.dll
 0000:fffde000       .debug$S                   0000000180000000     kernel32:KERNEL32.dll
 0000:fffde000       .debug$S                   0000000180000000     kernel32:KERNEL32.dll
 0000:fffde000       .debug$S                   0000000180000000     kernel32:KERNEL32.dll
 0000:fffde000       .debug$S                   0000000180000000     kernel32:KERNEL32.dll
 0000:fffde000       .debug$S                   0000000180000000     kernel32:KERNEL32.dll
 0000:fffde000       .debug$S                   0000000180000000     kernel32:KERNEL32.dll
 0000:fffde000       .debug$S                   0000000180000000     kernel32:KERNEL32.dll
 0000:fffde000       .debug$S                   0000000180000000     kernel32:KERNEL32.dll
 0000:fffde000       .debug$S                   0000000180000000     kernel32:KERNEL32.dll
 0000:fffde000       .debug$S                   0000000180000000     kernel32:KERNEL32.dll
 0000:fffde000       .debug$S                   0000000180000000     kernel32:KERNEL32.dll
 0000:fffde000       .debug$S                   0000000180000000     kernel32:KERNEL32.dll
 0000:fffde000       .debug$S                   0000000180000000     kernel32:KERNEL32.dll
 0000:fffde000       .debug$S                   0000000180000000     kernel32:KERNEL32.dll
 0000:fffde000       .debug$S                   0000000180000000     kernel32:KERNEL32.dll
 0000:fffde000       .debug$S                   0000000180000000     kernel32:KERNEL32.dll
 0000:fffde000       .debug$S                   0000000180000000     kernel32:KERNEL32.dll
 0000:fffde000       .debug$S                   0000000180000000     kernel32:KERNEL32.dll
 0000:fffde000       .debug$S                   0000000180000000     kernel32:KERNEL32.dll
 0000:fffde000       .debug$S                   0000000180000000     kernel32:KERNEL32.dll
 0000:fffde000       .debug$S                   0000000180000000     kernel32:KERNEL32.dll
 0000:fffde000       .debug$S                   0000000180000000     kernel32:KERNEL32.dll
 0000:fffde000       .debug$S                   0000000180000000     kernel32:KERNEL32.dll
 0000:fffde000       .debug$S                   0000000180000000     kernel32:KERNEL32.dll
 0000:fffde000       .debug$S                   0000000180000000     kernel32:KERNEL32.dll
 0000:fffde000       .debug$S                   0000000180000000     kernel32:KERNEL32.dll
 0000:fffde000       .debug$S                   0000000180000000     kernel32:KERNEL32.dll
 0000:fffde000       .debug$S                   0000000180000000     kernel32:KERNEL32.dll
 0000:fffde000       .debug$S                   0000000180000000     kernel32:KERNEL32.dll
 0000:fffde000       .debug$S                   0000000180000000     kernel32:KERNEL32.dll
 0000:fffde000       .debug$S                   0000000180000000     kernel32:KERNEL32.dll
 0000:fffde000       .debug$S                   0000000180000000     node:node.exe
 0000:fffde000       .debug$S                   0000000180000000     kernel32:KERNEL32.dll
 0000:fffde000       .debug$S                   0000000180000000     node:node.exe
 0000:fffde000       .debug$S                   0000000180000000     kernel32:KERNEL32.dll
 0000:fffde000       .debug$S                   0000000180000000     node:node.exe
 0000:fffde000       .debug$S                   0000000180000000     node:node.exe
 0000:fffde000       .debug$S                   0000000180000000     node:node.exe
 0000:fffde000       .debug$S                   0000000180000000     node:node.exe
 0000:fffde000       .debug$S                   0000000180000000     node:node.exe
 0000:fffde000       .debug$S                   0000000180000000     node:node.exe
 0000:fffde000       .debug$S                   0000000180000000     node:node.exe
 0000:fffde000       .debug$S                   0000000180000000     node:node.exe
 0000:fffde000       .debug$S                   0000000180000000     node:node.exe
 0000:fffde000       .debug$S                   0000000180000000     node:node.exe
 0000:fffde000       .debug$S                   0000000180000000     node:node.exe
 0000:fffde000       .debug$S                   0000000180000000     node:node.exe
 0000:fffde000       .debug$S                   0000000180000000     node:node.exe
 0000:fffde000       .debug$S                   0000000180000000     node:node.exe
 0000:fffde000       .debug$S                   0000000180000000     node:node.exe
 0000:fffde000       .debug$S                   0000000180000000     node:node.exe
 0000:fffde000       .debug$S                   0000000180000000     node:node.exe
 0000:fffde000       .debug$S                   0000000180000000     node:node.exe
 0000:fffde000       .debug$S                   0000000180000000     node:node.exe
 0000:fffde000       .debug$S                   0000000180000000     node:node.exe
 0000:fffde000       .debug$S                   0000000180000000     node:node.exe
 0000:fffde000       .debug$S                   0000000180000000     kernel32:KERNEL32.dll
 0000:fffde000       .debug$S                   0000000180000000     node:node.exe
 0000:fffde000       .debug$S                   0000000180000000     kernel32:KERNEL32.dll
 0000:fffde000       .debug$S                   0000000180000000     node:node.exe
 0000:fffde000       .debug$S                   0000000180000000     kernel32:KERNEL32.dll
 0000:fffde000       .debug$S                   0000000180000000     node:node.exe
 0000:fffde000       .debug$S                   0000000180000000     node:node.exe
 0000:fffde000       .debug$S                   0000000180000000     node:node.exe
 0000:fffde000       .debug$S                   0000000180000000     node:node.exe
 0000:fffde000       .debug$S                   0000000180000000     node:node.exe
 0000:fffde000       .debug$S                   0000000180000000     kernel32:KERNEL32.dll
 0000:fffde000       .debug$S                   0000000180000000     node:node.exe
 0000:fffde000       .debug$S                   0000000180000000     node:node.exe
 0000:fffde000       .debug$S                   0000000180000000     node:node.exe
 0000:fffde000       .debug$S                   0000000180000000     node:node.exe
 0000:fffde000       .debug$S                   0000000180000000     kernel32:KERNEL32.dll
 0000:fffde000       .debug$S                   0000000180000000     kernel32:KERNEL32.dll
 0000:fffde000       .debug$S                   0000000180000000     kernel32:KERNEL32.dll
 0000:fffde000       .debug$S                   0000000180000000     kernel32:KERNEL32.dll
 0000:fffde000       .debug$S                   0000000180000000     kernel32:KERNEL32.dll
 0000:fffde000       .debug$S                   0000000180000000     kernel32:KERNEL32.dll
 0000:fffde000       .debug$S                   0000000180000000     kernel32:KERNEL32.dll
 0000:fffde000       .debug$S                   0000000180000000     kernel32:KERNEL32.dll
 0000:fffde000       .debug$S                   0000000180000000     kernel32:KERNEL32.dll
 0000:fffde000       .debug$S                   0000000180000000     kernel32:KERNEL32.dll
 0000:fffde000       .debug$S                   0000000180000000     kernel32:KERNEL32.dll
 0000:fffde000       .debug$S                   0000000180000000     kernel32:KERNEL32.dll
 0000:fffde000       .debug$S                   0000000180000000     kernel32:KERNEL32.dll
 0000:fffde000       .debug$S                   0000000180000000     kernel32:KERNEL32.dll
 0000:fffde000       .debug$S                   0000000180000000     kernel32:KERNEL32.dll
 0000:fffde000       .debug$S                   0000000180000000     kernel32:KERNEL32.dll
 0000:fffde000       .debug$S                   0000000180000000     kernel32:KERNEL32.dll
 0000:fffde000       .debug$S                   0000000180000000     kernel32:KERNEL32.dll
 0000:fffde000       .debug$S                   0000000180000000     kernel32:KERNEL32.dll
 0000:fffde000       .debug$S                   0000000180000000     kernel32:KERNEL32.dll
 0000:fffde000       .debug$S                   0000000180000000     kernel32:KERNEL32.dll
 0000:fffde000       .debug$S                   0000000180000000     kernel32:KERNEL32.dll
 0000:fffde000       .debug$S                   0000000180000000     kernel32:KERNEL32.dll
 0000:fffde000       .debug$S                   0000000180000000     kernel32:KERNEL32.dll
 0000:fffde000       .debug$S                   0000000180000000     kernel32:KERNEL32.dll
 0000:fffde000       .debug$S                   0000000180000000     kernel32:KERNEL32.dll
 0000:fffde000       .debug$S                   0000000180000000     kernel32:KERNEL32.dll
 0001:00000000       ??__Epiecewise_construct@std@@YAXXZ 0000000180001000 f   buffertools.obj
 0001:00000010       ??__Eallocator_arg@std@@YAXXZ 0000000180001010 f   buffertools.obj
 0001:00001a10       _register_buffertools      0000000180002a10 f   buffertools.obj
 0001:00002660       ?load_exe_hook@@YAP6A_JXZIPEAUDelayLoadInfo@@@Z 0000000180003660 f   win_delay_load_hook.obj
 0001:000029f0       $$000000                   00000001800039f0     LIBCMT:amdsecgs.obj
 0001:00002a80       $$000000                   0000000180003a80     LIBCMT:memcpy.obj
 0001:00002b70       MoveSmall                  0000000180003b70     LIBCMT:memcpy.obj
 0001:00003670       __DllMainCRTStartup        0000000180004670 f   LIBCMT:dllcrt0.obj
 0001:00003790       $$000000                   0000000180004790     LIBCMT:strlen.obj
 0001:00003f68       _initterm                  0000000180004f68 f   LIBCMT:crt0dat.obj
 0001:0000401c       doexit                     000000018000501c f   LIBCMT:crt0dat.obj
 0001:00005ee8       write_char                 0000000180006ee8 f   LIBCMT:outputp.obj
 0001:00005f30       write_multi_char           0000000180006f30 f   LIBCMT:outputp.obj
 0001:00005f84       write_string               0000000180006f84 f   LIBCMT:outputp.obj
 0001:00006100       $$000000                   0000000180007100     LIBCMT:memset.obj
 0001:000062a5       MsetTab                    00000001800072a5     LIBCMT:memset.obj
 0001:000067fc       ?getSystemCP@@YAHH@Z       00000001800077fc f   LIBCMT:mbctype.obj
 0001:0000687c       ?setSBCS@@YAXPEAUthreadmbcinfostruct@@@Z 000000018000787c f   LIBCMT:mbctype.obj
 0001:0000690c       ?setSBUpLow@@YAXPEAUthreadmbcinfostruct@@@Z 000000018000790c f   LIBCMT:mbctype.obj
 0001:00007c80       parse_cmdline              0000000180008c80 f   LIBCMT:stdargv.obj
 0001:000088e0       $$000000                   00000001800098e0     LIBCMT:strcmp.obj
 0001:00008e18       _cftoe2_l                  0000000180009e18 f   LIBCMT:cvt.obj
 0001:0000910c       _cftof2_l                  000000018000a10c f   LIBCMT:cvt.obj
 0001:00009de0       $$000000                   000000018000ade0     LIBCMT:jmpuwind.obj
 0001:0000a000       $$000000                   000000018000b000     LIBCMT:fpsr.obj
 0001:0000afb0       ?strtoxl@@YAKPEAUlocaleinfo_struct@@PEBDPEAPEBDHH@Z 000000018000bfb0 f   LIBCMT:strtol.obj
 0001:0000b790       ?__crtLCMapStringA_stat@@YAHPEAUlocaleinfo_struct@@PEB_WKPEBDHPEADHHH@Z 000000018000c790 f   LIBCMT:a_map.obj
 0001:0000bb14       ?__crtGetStringTypeA_stat@@YAHPEAUlocaleinfo_struct@@KPEBDHPEAGHH@Z 000000018000cb14 f   LIBCMT:a_str.obj
 0001:0000bdf0       $$000000                   000000018000cdf0     LIBCMT:memcmp.obj
 0001:0000c0a4       ?x_ismbbtype_l@@YAHPEAUlocaleinfo_struct@@IHH@Z 000000018000d0a4 f   LIBCMT:ismbbyte.obj
 0001:0000c140       $$000000                   000000018000d140     LIBCMT:handlers.obj
 0001:0000cae0       flsall                     000000018000dae0 f   LIBCMT:fflush.obj
 0001:0000cbd0       $$000000                   000000018000dbd0     LIBCMT:chkstk.obj
 0001:0000f7d0       _onexit$fin$0              00000001800107d0 f   LIBCMT:onexit.obj
 0001:0000f7e4       _CRT_INIT$fin$0            00000001800107e4 f   LIBCMT:dllcrt0.obj
 0001:0000f80a       __DllMainCRTStartup$filt$0 000000018001080a f   LIBCMT:dllcrt0.obj
 0001:0000f853       doexit$fin$0               0000000180010853 f   LIBCMT:crt0dat.obj
 0001:0000f877       raise$fin$0                0000000180010877 f   LIBCMT:winsig.obj
 0001:0000f895       _setmbcp$fin$0             0000000180010895 f   LIBCMT:mbctype.obj
 0001:0000f895       __updatetmbcinfo$fin$0     0000000180010895 f   LIBCMT:mbctype.obj
 0001:0000f8ae       _freefls$fin$1             00000001800108ae f   LIBCMT:tidtable.obj
 0001:0000f8ae       _initptd$fin$1             00000001800108ae f   LIBCMT:tidtable.obj
 0001:0000f8c7       _initptd$fin$0             00000001800108c7 f   LIBCMT:tidtable.obj
 0001:0000f8c7       _freefls$fin$0             00000001800108c7 f   LIBCMT:tidtable.obj
 0001:0000f8e0       __updatetlocinfo$fin$0     00000001800108e0 f   LIBCMT:wsetloca.obj
 0001:0000f8e0       _locterm$fin$0             00000001800108e0 f   LIBCMT:wsetloca.obj
 0001:0000f8f9       _ioinit$fin$0              00000001800108f9 f   LIBCMT:ioinit.obj
 0001:0000f914       __DestructExceptionObject$filt$0 0000000180010914 f   LIBCMT:frame.obj
 0001:0000f92c       ?fin$0@?0??_Type_info_dtor@type_info@@CAXPEAV1@@Z@4HA 000000018001092c f   LIBCMT:typname.obj
 0001:0000f945       _mtinitlocknum$fin$0       0000000180010945 f   LIBCMT:mlock.obj
 0001:0000f970       _IsNonwritableInCurrentImage$filt$0 0000000180010970 f   LIBCMT:pesect.obj
 0001:0000f990       _lseeki64$fin$0            0000000180010990 f   LIBCMT:lseeki64.obj
 0001:0000f990       _write$fin$0               0000000180010990 f   LIBCMT:lseeki64.obj
 0001:0000f9a7       flsall$fin$0               00000001800109a7 f   LIBCMT:fflush.obj
 0001:0000f9cf       flsall$fin$1               00000001800109cf f   LIBCMT:fflush.obj
 0001:0000f9e8       _fcloseall$fin$0           00000001800109e8 f   LIBCMT:closeall.obj
 0001:0000fa01       __lock_fhandle$fin$0       0000000180010a01 f   LIBCMT:osfinfo.obj
 0001:0000fa1a       fclose$fin$0               0000000180010a1a f   LIBCMT:fclose.obj
 0001:0000fa32       _commit$fin$0              0000000180010a32 f   LIBCMT:close.obj
 0001:0000fa32       _close$fin$0               0000000180010a32 f   LIBCMT:close.obj
 0002:00000230       piecewise_construct$initializer$ 0000000180011230     buffertools.obj
 0002:00000238       allocator_arg$initializer$ 0000000180011238     buffertools.obj
 0002:00000258       pinit                      0000000180011258     LIBCMT:onexit.obj
 0002:00000260       pinit                      0000000180011260     LIBCMT:cpu_disp.obj
 0002:00000268       pinit                      0000000180011268     LIBCMT:mbctype.obj
 0002:00000270       pinit                      0000000180011270     LIBCMT:_file.obj
 0002:00000288       pterm                      0000000180011288     LIBCMT:wsetloca.obj
 0002:00000290       pterm                      0000000180011290     LIBCMT:initcon.obj
 0002:00000298       pterm                      0000000180011298     LIBCMT:_file.obj
 0002:00000310       _Win_errtab                0000000180011310     libcpmt:syserror.obj
 0002:000007c0       _Sys_errtab                00000001800117c0     libcpmt:syserror.obj
 0002:00001670       ?ExceptionTemplate@?1??_CxxThrowException@@9@4UEHExceptionRecord@@B 0000000180012670     LIBCMT:throw.obj
 0002:000016f8       GS_ExceptionPointers       00000001800126f8     LIBCMT:gs_report.obj
 0002:00001810       _mb_locale_names           0000000180012810     LIBCMT:mbctype.obj
 0002:00001c30       _first_127char             0000000180012c30     LIBCMT:wsetloca.obj
 0002:000020c0       rterrs                     00000001800130c0     LIBCMT:crt0msg.obj
 0002:00005f30       __real@433fffffffffffff    0000000180016f30     LIBCMT:fpsr.obj
 0002:00005f38       __real@c33fffffffffffff    0000000180016f38     LIBCMT:fpsr.obj
 0002:00006830       tokenTable                 0000000180017830     LIBCMT:undname.obj
 0002:000068a0       nameTable                  00000001800178a0     LIBCMT:undname.obj
 0002:00006b20       rttiTable                  0000000180017b20     LIBCMT:undname.obj
 0002:000074a0       fromHexTable               00000001800184a0     buffertools.obj
 0002:000075a0       toHexTable                 00000001800185a0     buffertools.obj
 0002:00007970       $unwind$?prepare_goodsuffix_heuristic@@YAXPEBE_KQEAH@Z 0000000180018970     buffertools.obj
 0002:0000798c       $unwind$?boyermoore_search@@YAPEBEPEBE_K01@Z 000000018001898c     buffertools.obj
 0002:000079a4       $chain$1$?boyermoore_search@@YAPEBEPEBE_K01@Z 00000001800189a4     buffertools.obj
 0002:000079bc       $chain$2$?boyermoore_search@@YAPEBEPEBE_K01@Z 00000001800189bc     buffertools.obj
 0002:000079cc       $chain$3$?boyermoore_search@@YAPEBEPEBE_K01@Z 00000001800189cc     buffertools.obj
 0002:000079e4       $unwind$?snprintf@?A0xf709e2fd@@YAHPEAD_KPEBDZZ 00000001800189e4     buffertools.obj
 0002:000079f0       $unwind$?fill@?A0xf709e2fd@@YA?AV?$Local@VValue@v8@@@v8@@V?$Local@VObject@v8@@@3@PEAX_K@Z 00000001800189f0     buffertools.obj
 0002:00007a00       $chain$1$?fill@?A0xf709e2fd@@YA?AV?$Local@VValue@v8@@@v8@@V?$Local@VObject@v8@@@3@PEAX_K@Z 0000000180018a00     buffertools.obj
 0002:00007a18       $chain$2$?fill@?A0xf709e2fd@@YA?AV?$Local@VValue@v8@@@v8@@V?$Local@VObject@v8@@@3@PEAX_K@Z 0000000180018a18     buffertools.obj
 0002:00007a2c       $chain$3$?fill@?A0xf709e2fd@@YA?AV?$Local@VValue@v8@@@v8@@V?$Local@VObject@v8@@@3@PEAX_K@Z 0000000180018a2c     buffertools.obj
 0002:00007a3c       $chain$4$?fill@?A0xf709e2fd@@YA?AV?$Local@VValue@v8@@@v8@@V?$Local@VObject@v8@@@3@PEAX_K@Z 0000000180018a3c     buffertools.obj
 0002:00007a4c       $unwind$?apply@FillAction@?A0xf709e2fd@@QEAA?AV?$Local@VValue@v8@@@v8@@V?$Local@VObject@v8@@@4@AEBV?$FunctionCallbackInfo@VValue@v8@@@4@I@Z 0000000180018a4c     buffertools.obj
 0002:00007a5c       $unwind$?apply@IndexOfAction@?A0xf709e2fd@@QEAA?AV?$Local@VValue@v8@@@v8@@V?$Local@VObject@v8@@@4@PEBE_KAEBV?$FunctionCallbackInfo@VValue@v8@@@4@I@Z 0000000180018a5c     buffertools.obj
 0002:00007a6c       $unwind$?decodeHex@?A0xf709e2fd@@YA?AV?$Local@VValue@v8@@@v8@@QEBE_KAEBV?$FunctionCallbackInfo@VValue@v8@@@3@I@Z 0000000180018a6c     buffertools.obj
 0002:00007a80       $unwind$?apply@ToHexAction@?A0xf709e2fd@@QEAA?AV?$Local@VValue@v8@@@v8@@V?$Local@VObject@v8@@@4@AEBV?$FunctionCallbackInfo@VValue@v8@@@4@I@Z 0000000180018a80     buffertools.obj
 0002:00007a98       $chain$0$?apply@ToHexAction@?A0xf709e2fd@@QEAA?AV?$Local@VValue@v8@@@v8@@V?$Local@VObject@v8@@@4@AEBV?$FunctionCallbackInfo@VValue@v8@@@4@I@Z 0000000180018a98     buffertools.obj
 0002:00007aac       $chain$1$?apply@ToHexAction@?A0xf709e2fd@@QEAA?AV?$Local@VValue@v8@@@v8@@V?$Local@VObject@v8@@@4@AEBV?$FunctionCallbackInfo@VValue@v8@@@4@I@Z 0000000180018aac     buffertools.obj
 0002:00007abc       $unwind$?Clear@?A0xf709e2fd@@YAXAEBV?$FunctionCallbackInfo@VValue@v8@@@v8@@@Z 0000000180018abc     buffertools.obj
 0002:00007abc       $unwind$?Reverse@?A0xf709e2fd@@YAXAEBV?$FunctionCallbackInfo@VValue@v8@@@v8@@@Z 0000000180018abc     buffertools.obj
 0002:00007ac4       $chain$0$?Clear@?A0xf709e2fd@@YAXAEBV?$FunctionCallbackInfo@VValue@v8@@@v8@@@Z 0000000180018ac4     buffertools.obj
 0002:00007ad8       $chain$1$?Clear@?A0xf709e2fd@@YAXAEBV?$FunctionCallbackInfo@VValue@v8@@@v8@@@Z 0000000180018ad8     buffertools.obj
 0002:00007aec       $chain$2$?Clear@?A0xf709e2fd@@YAXAEBV?$FunctionCallbackInfo@VValue@v8@@@v8@@@Z 0000000180018aec     buffertools.obj
 0002:00007afc       $chain$5$?Clear@?A0xf709e2fd@@YAXAEBV?$FunctionCallbackInfo@VValue@v8@@@v8@@@Z 0000000180018afc     buffertools.obj
 0002:00007afc       $chain$3$?Clear@?A0xf709e2fd@@YAXAEBV?$FunctionCallbackInfo@VValue@v8@@@v8@@@Z 0000000180018afc     buffertools.obj
 0002:00007b0c       $chain$4$?Clear@?A0xf709e2fd@@YAXAEBV?$FunctionCallbackInfo@VValue@v8@@@v8@@@Z 0000000180018b0c     buffertools.obj
 0002:00007b20       $unwind$?FromHex@?A0xf709e2fd@@YAXAEBV?$FunctionCallbackInfo@VValue@v8@@@v8@@@Z 0000000180018b20     buffertools.obj
 0002:00007b20       $unwind$?IndexOf@?A0xf709e2fd@@YAXAEBV?$FunctionCallbackInfo@VValue@v8@@@v8@@@Z 0000000180018b20     buffertools.obj
 0002:00007b20       $unwind$?Compare@?A0xf709e2fd@@YAXAEBV?$FunctionCallbackInfo@VValue@v8@@@v8@@@Z 0000000180018b20     buffertools.obj
 0002:00007b20       $unwind$?Equals@?A0xf709e2fd@@YAXAEBV?$FunctionCallbackInfo@VValue@v8@@@v8@@@Z 0000000180018b20     buffertools.obj
 0002:00007b2c       $unwind$?Fill@?A0xf709e2fd@@YAXAEBV?$FunctionCallbackInfo@VValue@v8@@@v8@@@Z 0000000180018b2c     buffertools.obj
 0002:00007b38       $chain$0$?Reverse@?A0xf709e2fd@@YAXAEBV?$FunctionCallbackInfo@VValue@v8@@@v8@@@Z 0000000180018b38     buffertools.obj
 0002:00007b4c       $chain$1$?Reverse@?A0xf709e2fd@@YAXAEBV?$FunctionCallbackInfo@VValue@v8@@@v8@@@Z 0000000180018b4c     buffertools.obj
 0002:00007b60       $chain$2$?Reverse@?A0xf709e2fd@@YAXAEBV?$FunctionCallbackInfo@VValue@v8@@@v8@@@Z 0000000180018b60     buffertools.obj
 0002:00007b70       $chain$3$?Reverse@?A0xf709e2fd@@YAXAEBV?$FunctionCallbackInfo@VValue@v8@@@v8@@@Z 0000000180018b70     buffertools.obj
 0002:00007b70       $chain$5$?Reverse@?A0xf709e2fd@@YAXAEBV?$FunctionCallbackInfo@VValue@v8@@@v8@@@Z 0000000180018b70     buffertools.obj
 0002:00007b80       $chain$4$?Reverse@?A0xf709e2fd@@YAXAEBV?$FunctionCallbackInfo@VValue@v8@@@v8@@@Z 0000000180018b80     buffertools.obj
 0002:00007b94       $unwind$?ToHex@?A0xf709e2fd@@YAXAEBV?$FunctionCallbackInfo@VValue@v8@@@v8@@@Z 0000000180018b94     buffertools.obj
 0002:00007ba0       $unwind$?Concat@?A0xf709e2fd@@YAXAEBV?$FunctionCallbackInfo@VValue@v8@@@v8@@@Z 0000000180018ba0     buffertools.obj
 0002:00007bc4       $chain$0$?Concat@?A0xf709e2fd@@YAXAEBV?$FunctionCallbackInfo@VValue@v8@@@v8@@@Z 0000000180018bc4     buffertools.obj
 0002:00007bd8       $chain$1$?Concat@?A0xf709e2fd@@YAXAEBV?$FunctionCallbackInfo@VValue@v8@@@v8@@@Z 0000000180018bd8     buffertools.obj
 0002:00007bd8       $chain$3$?Concat@?A0xf709e2fd@@YAXAEBV?$FunctionCallbackInfo@VValue@v8@@@v8@@@Z 0000000180018bd8     buffertools.obj
 0002:00007be8       $chain$2$?Concat@?A0xf709e2fd@@YAXAEBV?$FunctionCallbackInfo@VValue@v8@@@v8@@@Z 0000000180018be8     buffertools.obj
 0002:00007bfc       $unwind$?RegisterModule@?A0xf709e2fd@@YAXV?$Local@VObject@v8@@@v8@@@Z 0000000180018bfc     buffertools.obj
 0002:00007c08       $unwind$??R?$BinaryAction@UEqualsAction@?A0xf709e2fd@@@?A0xf709e2fd@@QEAA?AV?$Local@VValue@v8@@@v8@@AEBV?$FunctionCallbackInfo@VValue@v8@@@3@@Z 0000000180018c08     buffertools.obj
 0002:00007c1c       $chain$0$??R?$BinaryAction@UEqualsAction@?A0xf709e2fd@@@?A0xf709e2fd@@QEAA?AV?$Local@VValue@v8@@@v8@@AEBV?$FunctionCallbackInfo@VValue@v8@@@3@@Z 0000000180018c1c     buffertools.obj
 0002:00007c30       $chain$1$??R?$BinaryAction@UEqualsAction@?A0xf709e2fd@@@?A0xf709e2fd@@QEAA?AV?$Local@VValue@v8@@@v8@@AEBV?$FunctionCallbackInfo@VValue@v8@@@3@@Z 0000000180018c30     buffertools.obj
 0002:00007c40       $unwind$??R?$BinaryAction@UCompareAction@?A0xf709e2fd@@@?A0xf709e2fd@@QEAA?AV?$Local@VValue@v8@@@v8@@AEBV?$FunctionCallbackInfo@VValue@v8@@@3@@Z 0000000180018c40     buffertools.obj
 0002:00007c54       $chain$0$??R?$BinaryAction@UCompareAction@?A0xf709e2fd@@@?A0xf709e2fd@@QEAA?AV?$Local@VValue@v8@@@v8@@AEBV?$FunctionCallbackInfo@VValue@v8@@@3@@Z 0000000180018c54     buffertools.obj
 0002:00007c68       $unwind$??R?$BinaryAction@UIndexOfAction@?A0xf709e2fd@@@?A0xf709e2fd@@QEAA?AV?$Local@VValue@v8@@@v8@@AEBV?$FunctionCallbackInfo@VValue@v8@@@3@@Z 0000000180018c68     buffertools.obj
 0002:00007c78       $unwind$??R?$UnaryAction@UFromHexAction@?A0xf709e2fd@@@?A0xf709e2fd@@QEAA?AV?$Local@VValue@v8@@@v8@@AEBV?$FunctionCallbackInfo@VValue@v8@@@3@@Z 0000000180018c78     buffertools.obj
 0002:00007c84       $chain$0$??R?$UnaryAction@UFromHexAction@?A0xf709e2fd@@@?A0xf709e2fd@@QEAA?AV?$Local@VValue@v8@@@v8@@AEBV?$FunctionCallbackInfo@VValue@v8@@@3@@Z 0000000180018c84     buffertools.obj
 0002:00007c98       $chain$1$??R?$UnaryAction@UFromHexAction@?A0xf709e2fd@@@?A0xf709e2fd@@QEAA?AV?$Local@VValue@v8@@@v8@@AEBV?$FunctionCallbackInfo@VValue@v8@@@3@@Z 0000000180018c98     buffertools.obj
 0002:00007ca8       $unwind$_updatetlocinfoEx_nolock 0000000180018ca8     LIBCMT:localref.obj
 0002:00007ca8       $unwind$_close_nolock      0000000180018ca8     LIBCMT:close.obj
 0002:00007ca8       $unwind$_RTC_Terminate     0000000180018ca8     LIBCMT:initsect.obj
 0002:00007ca8       $unwind$??_Gbad_alloc@std@@UEAAPEAXI@Z 0000000180018ca8     libcpmt:xthrow.obj
 0002:00007ca8       $unwind$_fptostr           0000000180018ca8     LIBCMT:_fptostr.obj
 0002:00007ca8       $unwind$_getptd_noexit     0000000180018ca8     LIBCMT:tidtable.obj
 0002:00007ca8       $unwind$_RTC_Initialize    0000000180018ca8     LIBCMT:initsect.obj
 0002:00007ca8       $unwind$??_Gtype_info@@UEAAPEAXI@Z 0000000180018ca8     LIBCMT:typinfo.obj
 0002:00007ca8       $unwind$_fclose_nolock     0000000180018ca8     LIBCMT:fclose.obj
 0002:00007ca8       $unwind$??4exception@std@@QEAAAEAV01@AEBV01@@Z 0000000180018ca8     LIBCMT:stdexcpt.obj
 0002:00007ca8       $unwind$_calloc_impl       0000000180018ca8     LIBCMT:calloc_impl.obj
 0002:00007ca8       $unwind$??_Glogic_error@std@@UEAAPEAXI@Z 0000000180018ca8     libcpmt:xthrow.obj
 0002:00007ca8       $unwind$__freeCrtMemory    0000000180018ca8     LIBCMT:crt0dat.obj
 0002:00007ca8       $unwind$_dosmaperr         0000000180018ca8     LIBCMT:dosmap.obj
 0002:00007ca8       $unwind$_lock              0000000180018ca8     LIBCMT:mlock.obj
 0002:00007ca8       $unwind$??_Glength_error@std@@UEAAPEAXI@Z 0000000180018ca8     libcpmt:xthrow.obj
 0002:00007ca8       $unwind$__initstdio        0000000180018ca8     LIBCMT:_file.obj
 0002:00007ca8       $unwind$_initp_misc_cfltcvt_tab 0000000180018ca8     LIBCMT:cmiscdat.obj
 0002:00007ca8       $unwind$??_Gexception@std@@UEAAPEAXI@Z 0000000180018ca8     LIBCMT:stdexcpt.obj
 0002:00007ca8       $unwind$?assign@?$basic_string@DU?$char_traits@D@std@@V?$allocator@D@2@@std@@QEAAAEAV12@_KD@Z 0000000180018ca8     buffertools.obj
 0002:00007ca8       $unwind$_initterm_e        0000000180018ca8     LIBCMT:crt0dat.obj
 0002:00007cb4       $unwind$_XcptFilter        0000000180018cb4     LIBCMT:winxfltr.obj
 0002:00007cb4       $unwind$_mtdeletelocks     0000000180018cb4     LIBCMT:mlock.obj
 0002:00007cb4       $unwind$?setSBCS@@YAXPEAUthreadmbcinfostruct@@@Z 0000000180018cb4     LIBCMT:mbctype.obj
 0002:00007cb4       $unwind$_initterm          0000000180018cb4     LIBCMT:crt0dat.obj
 0002:00007cb4       $unwind$__freetlocinfo     0000000180018cb4     LIBCMT:localref.obj
 0002:00007cb4       $unwind$?_Copy@?$basic_string@DU?$char_traits@D@std@@V?$allocator@D@2@@std@@QEAAX_K0@Z 0000000180018cb4     buffertools.obj
 0002:00007cc8       $unwind$__GSHandlerCheckCommon 0000000180018cc8     LIBCMT:gshandler.obj
 0002:00007cc8       $unwind$_freebuf           0000000180018cc8     LIBCMT:_freebuf.obj
 0002:00007cc8       $unwind$_getbuf            0000000180018cc8     LIBCMT:_getbuf.obj
 0002:00007cc8       $unwind$wcscpy_s           0000000180018cc8     LIBCMT:wcscpy_s.obj
 0002:00007cc8       $unwind$wcscat_s           0000000180018cc8     LIBCMT:wcscat_s.obj
 0002:00007cc8       $unwind$??0_LocaleUpdate@@QEAA@PEAUlocaleinfo_struct@@@Z 0000000180018cc8     LIBCMT:stricmp.obj
 0002:00007cc8       $unwind$__crtTerminateProcess 0000000180018cc8     LIBCMT:winapisupp.obj
 0002:00007cc8       $unwind$_cinit             0000000180018cc8     LIBCMT:crt0dat.obj
 0002:00007cc8       $unwind$__crtCorExitProcess 0000000180018cc8     LIBCMT:crt0dat.obj
 0002:00007cc8       $unwind$?_Tidy@exception@std@@AEAAXXZ 0000000180018cc8     LIBCMT:stdexcpt.obj
 0002:00007cc8       $unwind$__raise_securityfailure 0000000180018cc8     LIBCMT:gs_report.obj
 0002:00007cc8       $unwind$?load_exe_hook@@YAP6A_JXZIPEAUDelayLoadInfo@@@Z 0000000180018cc8     win_delay_load_hook.obj
 0002:00007cc8       $unwind$write_char         0000000180018cc8     LIBCMT:outputp.obj
 0002:00007cc8       $unwind$??0length_error@std@@QEAA@AEBV01@@Z 0000000180018cc8     libcpmt:xthrow.obj
 0002:00007cc8       $unwind$__crtExitProcess   0000000180018cc8     LIBCMT:crt0dat.obj
 0002:00007cc8       $unwind$_lock_file2        0000000180018cc8     LIBCMT:_file.obj
 0002:00007cc8       $unwind$??0logic_error@std@@QEAA@AEBV01@@Z 0000000180018cc8     libcpmt:xthrow.obj
 0002:00007cc8       $unwind$__crtUnhandledException 0000000180018cc8     LIBCMT:winapisupp.obj
 0002:00007cc8       $unwind$__crtLoadWinApiPointers 0000000180018cc8     LIBCMT:winapisupp.obj
 0002:00007cc8       $unwind$strcpy_s           0000000180018cc8     LIBCMT:strcpy_s.obj
 0002:00007cc8       $unwind$wcsncpy_s          0000000180018cc8     LIBCMT:wcsncpy_s.obj
 0002:00007cc8       $unwind$_callnewh          0000000180018cc8     LIBCMT:handler.obj
 0002:00007cc8       $unwind$_fflush_nolock     0000000180018cc8     LIBCMT:fflush.obj
 0002:00007cc8       $unwind$__crtIsPackagedApp 0000000180018cc8     LIBCMT:winapisupp.obj
 0002:00007cc8       $unwind$_amsg_exit         0000000180018cc8     LIBCMT:crt0dat.obj
 0002:00007cc8       $unwind$??0exception@std@@QEAA@AEBV01@@Z 0000000180018cc8     LIBCMT:stdexcpt.obj
 0002:00007cc8       $unwind$??0bad_alloc@std@@QEAA@AEBV01@@Z 0000000180018cc8     libcpmt:xthrow.obj
 0002:00007cc8       $unwind$_lock_file         0000000180018cc8     LIBCMT:_file.obj
 0002:00007cc8       $unwind$_getptd            0000000180018cc8     LIBCMT:tidtable.obj
 0002:00007cc8       $unwind$_mtinit            0000000180018cc8     LIBCMT:tidtable.obj
 0002:00007cc8       $unwind$_init_pointers     0000000180018cc8     LIBCMT:crt0dat.obj
 0002:00007cc8       $unwind$__onexitinit       0000000180018cc8     LIBCMT:onexit.obj
 0002:00007cc8       $unwind$??0exception@std@@QEAA@AEBQEBD@Z 0000000180018cc8     LIBCMT:stdexcpt.obj
 0002:00007cc8       $unwind$_freeptd           0000000180018cc8     LIBCMT:tidtable.obj
 0002:00007cd0       xdata                      0000000180018cd0     node:node.exe
 0002:00007cd8       $unwind$_cfltcvt           0000000180018cd8     libcpmt:xthrow.obj
 0002:00007cd8       $unwind$?_Xlength_error@std@@YAXPEBD@Z 0000000180018cd8     libcpmt:xthrow.obj
 0002:00007cd8       $unwind$__initconout       0000000180018cd8     libcpmt:xthrow.obj
 0002:00007cd8       $unwind$?_Xbad_alloc@std@@YAXXZ 0000000180018cd8     libcpmt:xthrow.obj
 0002:00007ce0       $xdatasym                  0000000180018ce0     LIBCMT:amdsecgs.obj
 0002:00007ce8       $xdatasym                  0000000180018ce8     LIBCMT:memcpy.obj
 0002:00007cec       $unwind$_onexit            0000000180018cec     LIBCMT:onexit.obj
 0002:00007d1c       $unwind$_vsnprintf_helper  0000000180018d1c     LIBCMT:vsnprnc.obj
 0002:00007d34       $unwind$_stricmp_l         0000000180018d34     LIBCMT:stricmp.obj
 0002:00007d34       $unwind$?x_ismbbtype_l@@YAHPEAUlocaleinfo_struct@@IHH@Z 0000000180018d34     LIBCMT:stricmp.obj
 0002:00007d44       $unwind$_CRT_INIT          0000000180018d44     LIBCMT:dllcrt0.obj
 0002:00007d64       $unwind$__DllMainCRTStartup 0000000180018d64     LIBCMT:dllcrt0.obj
 0002:00007d90       $xdatasym                  0000000180018d90     LIBCMT:strlen.obj
 0002:00007d94       $unwind$_CxxThrowException 0000000180018d94     LIBCMT:throw.obj
 0002:00007da4       $unwind$?_Copy_str@exception@std@@AEAAXPEBD@Z 0000000180018da4     LIBCMT:stdexcpt.obj
 0002:00007db4       $unwind$__report_gsfailure 0000000180018db4     LIBCMT:gs_report.obj
 0002:00007db4       $unwind$_putwch_nolock     0000000180018db4     LIBCMT:gs_report.obj
 0002:00007dbc       $unwind$doexit             0000000180018dbc     LIBCMT:crt0dat.obj
 0002:00007dec       $unwind$raise              0000000180018dec     LIBCMT:winsig.obj
 0002:00007e1c       $unwind$_call_reportfault  0000000180018e1c     LIBCMT:invarg.obj
 0002:00007e3c       $unwind$__isa_available_init 0000000180018e3c     LIBCMT:cpu_disp.obj
 0002:00007e50       $unwind$_realloc_crt       0000000180018e50     LIBCMT:crtheap.obj
 0002:00007e50       $unwind$GetTableIndexFromLocaleName 0000000180018e50     LIBCMT:crtheap.obj
 0002:00007e50       $unwind$_malloc_crt        0000000180018e50     LIBCMT:crtheap.obj
 0002:00007e50       $unwind$_calloc_crt        0000000180018e50     LIBCMT:crtheap.obj
 0002:00007e68       $unwind$__C_specific_handler 0000000180018e68     LIBCMT:chandler.obj
 0002:00007e84       $unwind$free               0000000180018e84     LIBCMT:free.obj
 0002:00007e84       $unwind$__free_lconv_num   0000000180018e84     LIBCMT:free.obj
 0002:00007e8c       $unwind$_flsbuf            0000000180018e8c     LIBCMT:_flsbuf.obj
 0002:00007ea0       $unwind$_output_p_l        0000000180018ea0     LIBCMT:outputp.obj
 0002:00007ec4       $unwind$_validate_param_reuseA 0000000180018ec4     LIBCMT:outputp.obj
 0002:00007ed4       $unwind$write_multi_char   0000000180018ed4     LIBCMT:outputp.obj
 0002:00007ee8       $unwind$write_string       0000000180018ee8     LIBCMT:outputp.obj
 0002:00007f00       $xdatasym                  0000000180018f00     LIBCMT:memset.obj
 0002:00007f04       $unwind$__updatetlocinfo   0000000180018f04     LIBCMT:localref.obj
 0002:00007f24       $unwind$__updatetmbcinfo   0000000180018f24     LIBCMT:mbctype.obj
 0002:00007f48       $unwind$_setmbcp           0000000180018f48     LIBCMT:mbctype.obj
 0002:00007f78       $unwind$_setmbcp_nolock    0000000180018f78     LIBCMT:mbctype.obj
 0002:00007f98       $unwind$?setSBUpLow@@YAXPEAUthreadmbcinfostruct@@@Z 0000000180018f98     LIBCMT:mbctype.obj
 0002:00007fb4       $unwind$_tolower_l         0000000180018fb4     LIBCMT:tolower.obj
 0002:00007fc4       $unwind$_freefls           0000000180018fc4     LIBCMT:tidtable.obj
 0002:00007ff8       $unwind$_initptd           0000000180018ff8     LIBCMT:tidtable.obj
 0002:0000802c       $unwind$_get_osfhandle     000000018001902c     LIBCMT:tidtable.obj
 0002:0000802c       $unwind$atexit             000000018001902c     LIBCMT:tidtable.obj
 0002:0000802c       $unwind$_initp_eh_hooks    000000018001902c     LIBCMT:tidtable.obj
 0002:0000802c       $unwind$__termconout       000000018001902c     LIBCMT:tidtable.obj
 0002:0000802c       $unwind$__initmbctable     000000018001902c     LIBCMT:tidtable.obj
 0002:0000802c       $unwind$__endstdio         000000018001902c     LIBCMT:tidtable.obj
 0002:0000802c       $unwind$_fileno            000000018001902c     LIBCMT:tidtable.obj
 0002:0000802c       $unwind$abort              000000018001902c     LIBCMT:tidtable.obj
 0002:0000802c       $unwind$__crtInitializeCriticalSectionEx 000000018001902c     LIBCMT:tidtable.obj
 0002:0000802c       $unwind$_set_error_mode    000000018001902c     LIBCMT:tidtable.obj
 0002:0000802c       $unwind$__crtDownlevelLocaleNameToLCID 000000018001902c     LIBCMT:tidtable.obj
 0002:0000802c       $unwind$_invoke_watson     000000018001902c     LIBCMT:tidtable.obj
 0002:0000802c       $unwind$_stricmp           000000018001902c     LIBCMT:tidtable.obj
 0002:0000802c       $unwind$__GSHandlerCheck   000000018001902c     LIBCMT:tidtable.obj
 0002:0000802c       $unwind$_errno             000000018001902c     LIBCMT:tidtable.obj
 0002:0000802c       $unwind$_mtterm            000000018001902c     LIBCMT:tidtable.obj
 0002:0000802c       $unwind$_isatty            000000018001902c     LIBCMT:tidtable.obj
 0002:0000802c       $unwind$_FF_MSGBANNER      000000018001902c     LIBCMT:tidtable.obj
 0002:0000802c       $unwind$__doserrno         000000018001902c     LIBCMT:tidtable.obj
 0002:0000802c       $unwind$_heap_init         000000018001902c     LIBCMT:tidtable.obj
 0002:0000802c       $unwind$_msize             000000018001902c     LIBCMT:tidtable.obj
 0002:00008034       $unwind$_locterm           0000000180019034     LIBCMT:wsetloca.obj
 0002:00008054       $unwind$_ioinit            0000000180019054     LIBCMT:ioinit.obj
 0002:0000809c       $unwind$_setargv           000000018001909c     LIBCMT:stdargv.obj
 0002:000080ac       $unwind$parse_cmdline      00000001800190ac     LIBCMT:stdargv.obj
 0002:000080c8       $unwind$_setenvp           00000001800190c8     LIBCMT:stdenvp.obj
 0002:000080c8       $unwind$_invalid_parameter 00000001800190c8     LIBCMT:stdenvp.obj
 0002:000080dc       $unwind$__security_init_cookie 00000001800190dc     LIBCMT:gs_support.obj
 0002:000080e8       $unwind$__crtGetEnvironmentStringsA 00000001800190e8     LIBCMT:a_env.obj
 0002:000080e8       $unwind$_cftof2_l          00000001800190e8     LIBCMT:a_env.obj
 0002:00008100       $unwind$__crtCaptureCurrentContext 0000000180019100     LIBCMT:winapisupp.obj
 0002:0000810c       $unwind$__crtCapturePreviousContext 000000018001910c     LIBCMT:winapisupp.obj
 0002:00008118       $unwind$__DestructExceptionObject 0000000180019118     LIBCMT:frame.obj
 0002:00008138       $unwind$?terminate@@YAXXZ  0000000180019138     LIBCMT:hooks.obj
 0002:00008158       $xdatasym                  0000000180019158     LIBCMT:strcmp.obj
 0002:0000815c       $unwind$?_Type_info_dtor@type_info@@CAXPEAV1@@Z 000000018001915c     LIBCMT:typname.obj
 0002:0000817c       $unwind$_fassign_l         000000018001917c     LIBCMT:cvt.obj
 0002:00008184       $unwind$_cftoe2_l          0000000180019184     LIBCMT:cvt.obj
 0002:000081a0       $unwind$_cftoe_l           00000001800191a0     LIBCMT:cvt.obj
 0002:000081b8       $unwind$_cftoa_l           00000001800191b8     LIBCMT:cvt.obj
 0002:000081d4       $unwind$_cftof_l           00000001800191d4     LIBCMT:cvt.obj
 0002:000081ec       $unwind$_cftog_l           00000001800191ec     LIBCMT:cvt.obj
 0002:00008204       $unwind$_mtinitlocknum     0000000180019204     LIBCMT:mlock.obj
 0002:0000822c       $unwind$_mtinitlocks       000000018001922c     LIBCMT:mlock.obj
 0002:0000822c       $unwind$realloc            000000018001922c     LIBCMT:mlock.obj
 0002:0000822c       $unwind$_ioterm            000000018001922c     LIBCMT:mlock.obj
 0002:0000822c       $unwind$malloc             000000018001922c     LIBCMT:mlock.obj
 0002:0000822c       $unwind$_DllMainCRTStartup 000000018001922c     LIBCMT:mlock.obj
 0002:0000822c       $unwind$_lseeki64_nolock   000000018001922c     LIBCMT:mlock.obj
 0002:0000822c       $unwind$_flush             000000018001922c     LIBCMT:mlock.obj
 0002:0000823c       $unwind$_NMSG_WRITE        000000018001923c     LIBCMT:crt0msg.obj
 0002:00008260       $unwind$_IsNonwritableInCurrentImage 0000000180019260     LIBCMT:pesect.obj
 0002:00008284       $unwind$__DllMainCRTStartup$filt$0 0000000180019284     LIBCMT:pesect.obj
 0002:00008284       $unwind$_CRT_INIT$fin$0    0000000180019284     LIBCMT:pesect.obj
 0002:00008284       $unwind$_lseeki64$fin$0    0000000180019284     LIBCMT:pesect.obj
 0002:00008284       $unwind$?fin$0@?0??_Type_info_dtor@type_info@@CAXPEAV1@@Z@4HA 0000000180019284     LIBCMT:pesect.obj
 0002:00008284       $unwind$_fcloseall$fin$0   0000000180019284     LIBCMT:pesect.obj
 0002:00008284       $unwind$__DestructExceptionObject$filt$0 0000000180019284     LIBCMT:pesect.obj
 0002:00008284       $unwind$_onexit$fin$0      0000000180019284     LIBCMT:pesect.obj
 0002:00008284       $unwind$raise$fin$0        0000000180019284     LIBCMT:pesect.obj
 0002:00008284       $unwind$_close$fin$0       0000000180019284     LIBCMT:pesect.obj
 0002:00008284       $unwind$_setmbcp$fin$0     0000000180019284     LIBCMT:pesect.obj
 0002:00008284       $unwind$fclose$fin$0       0000000180019284     LIBCMT:pesect.obj
 0002:00008284       $unwind$doexit$fin$0       0000000180019284     LIBCMT:pesect.obj
 0002:00008284       $unwind$__updatetlocinfo$fin$0 0000000180019284     LIBCMT:pesect.obj
 0002:00008284       $unwind$_locterm$fin$0     0000000180019284     LIBCMT:pesect.obj
 0002:00008284       $unwind$_freefls$fin$1     0000000180019284     LIBCMT:pesect.obj
 0002:00008284       $unwind$__lock_fhandle$fin$0 0000000180019284     LIBCMT:pesect.obj
 0002:00008284       $unwind$_freefls$fin$0     0000000180019284     LIBCMT:pesect.obj
 0002:00008284       $unwind$_commit$fin$0      0000000180019284     LIBCMT:pesect.obj
 0002:00008284       $unwind$_mtinitlocknum$fin$0 0000000180019284     LIBCMT:pesect.obj
 0002:00008284       $unwind$__updatetmbcinfo$fin$0 0000000180019284     LIBCMT:pesect.obj
 0002:00008284       $unwind$_write$fin$0       0000000180019284     LIBCMT:pesect.obj
 0002:00008284       $unwind$_IsNonwritableInCurrentImage$filt$0 0000000180019284     LIBCMT:pesect.obj
 0002:00008284       $unwind$_initptd$fin$0     0000000180019284     LIBCMT:pesect.obj
 0002:00008284       $unwind$flsall$fin$0       0000000180019284     LIBCMT:pesect.obj
 0002:00008284       $unwind$_initptd$fin$1     0000000180019284     LIBCMT:pesect.obj
 0002:00008284       $unwind$flsall$fin$1       0000000180019284     LIBCMT:pesect.obj
 0002:00008284       $unwind$_ioinit$fin$0      0000000180019284     LIBCMT:pesect.obj
 0002:00008290       $xdatasym                  0000000180019290     LIBCMT:jmpuwind.obj
 0002:000082a4       $unwind$__crtLCMapStringEx 00000001800192a4     LIBCMT:winapinls.obj
 0002:000082b8       $xdatasym                  00000001800192b8     LIBCMT:fpsr.obj
 0002:000082c0       $unwind$_write             00000001800192c0     LIBCMT:write.obj
 0002:000082ec       $unwind$_write_nolock      00000001800192ec     LIBCMT:write.obj
 0002:00008310       $unwind$_lseeki64          0000000180019310     LIBCMT:lseeki64.obj
 0002:0000833c       $unwind$_cfltcvt_l         000000018001933c     LIBCMT:wctomb.obj
 0002:0000833c       $unwind$strtol             000000018001933c     LIBCMT:wctomb.obj
 0002:0000833c       $unwind$_vsprintf_p        000000018001933c     LIBCMT:wctomb.obj
 0002:0000833c       $unwind$wctomb_s           000000018001933c     LIBCMT:wctomb.obj
 0002:0000833c       $unwind$_invalid_parameter_noinfo 000000018001933c     LIBCMT:wctomb.obj
 0002:00008344       $unwind$_wctomb_s_l        0000000180019344     LIBCMT:wctomb.obj
 0002:00008354       $unwind$?strtoxl@@YAKPEAUlocaleinfo_struct@@PEBDPEAPEBDHH@Z 0000000180019354     LIBCMT:strtol.obj
 0002:0000836c       $unwind$__free_lconv_mon   000000018001936c     LIBCMT:inittime.obj
 0002:0000836c       $unwind$__free_lc_time     000000018001936c     LIBCMT:inittime.obj
 0002:00008374       $unwind$__crtLCMapStringA  0000000180019374     LIBCMT:a_map.obj
 0002:00008384       $unwind$?__crtLCMapStringA_stat@@YAHPEAUlocaleinfo_struct@@PEB_WKPEBDHPEADHHH@Z 0000000180019384     LIBCMT:a_map.obj
 0002:000083ac       $unwind$__crtGetStringTypeA 00000001800193ac     LIBCMT:a_str.obj
 0002:000083bc       $unwind$?__crtGetStringTypeA_stat@@YAHPEAUlocaleinfo_struct@@KPEBDHPEAGHH@Z 00000001800193bc     LIBCMT:a_str.obj
 0002:000083e4       $unwind$_isctype_l         00000001800193e4     LIBCMT:isctype.obj
 0002:000083f8       $xdatasym                  00000001800193f8     LIBCMT:memcmp.obj
 0002:00008400       $xdatasym                  0000000180019400     LIBCMT:handlers.obj
 0002:00008408       $unwind$isleadbyte         0000000180019408     LIBCMT:_ctype.obj
 0002:00008408       $unwind$_isleadbyte_l      0000000180019408     LIBCMT:_ctype.obj
 0002:00008408       $unwind$?getSystemCP@@YAHH@Z 0000000180019408     LIBCMT:_ctype.obj
 0002:00008408       $unwind$_cropzeros_l       0000000180019408     LIBCMT:_ctype.obj
 0002:00008408       $unwind$_forcdecpt_l       0000000180019408     LIBCMT:_ctype.obj
 0002:00008408       $unwind$isdigit            0000000180019408     LIBCMT:_ctype.obj
 0002:00008408       $unwind$??2@YAPEAX_K@Z     0000000180019408     LIBCMT:_ctype.obj
 0002:00008410       $unwind$strrchr            0000000180019410     LIBCMT:strrchr.obj
 0002:00008418       $unwind$_atodbl_l          0000000180019418     LIBCMT:atodbl.obj
 0002:0000842c       $unwind$__crt_atoflt_l     000000018001942c     LIBCMT:atodbl.obj
 0002:00008440       $unwind$_fltout2           0000000180019440     LIBCMT:cfout.obj
 0002:00008458       $unwind$__dtold            0000000180019458     LIBCMT:cfout.obj
 0002:00008460       $unwind$__crtMessageBoxW   0000000180019460     LIBCMT:crtmboxw.obj
 0002:0000847c       $unwind$flsall             000000018001947c     LIBCMT:fflush.obj
 0002:000084c0       $xdatasym                  00000001800194c0     LIBCMT:chkstk.obj
 0002:000084c8       $unwind$_fcloseall         00000001800194c8     LIBCMT:closeall.obj
 0002:000084f0       $unwind$_free_osfhnd       00000001800194f0     LIBCMT:osfinfo.obj
 0002:00008500       $unwind$__lock_fhandle     0000000180019500     LIBCMT:osfinfo.obj
 0002:0000852c       $unwind$_mbtowc_l          000000018001952c     LIBCMT:mbtowc.obj
 0002:00008544       $unwind$_ld12tod           0000000180019544     LIBCMT:intrncvt.obj
 0002:00008544       $unwind$_ld12tof           0000000180019544     LIBCMT:intrncvt.obj
 0002:00008568       $unwind$__strgtold12_l     0000000180019568     LIBCMT:strgtold.obj
 0002:0000858c       $unwind$$I10_OUTPUT        000000018001958c     LIBCMT:x10fout.obj
 0002:000085b0       $unwind$_commit            00000001800195b0     LIBCMT:commit.obj
 0002:000085d8       $unwind$fclose             00000001800195d8     LIBCMT:fclose.obj
 0002:000085fc       $unwind$__mtold12          00000001800195fc     LIBCMT:mantold.obj
 0002:00008614       $unwind$_close             0000000180019614     LIBCMT:close.obj
 0002:0000863c       $unwind$__delayLoadHelper2 000000018001963c     DelayImp:delayhlp.obj
 0002:00009000       .edata                     000000018001a000     buffertools.exp
 0002:00009028       rgpv                       000000018001a028     buffertools.exp
 0002:0000902c       rgszName                   000000018001a02c     buffertools.exp
 0002:00009030       rgwOrd                     000000018001a030     buffertools.exp
 0002:00009032       szName                     000000018001a032     buffertools.exp
 0002:00009043       $N00001                    000000018001a043     buffertools.exp
 0002:000092c4       .idata$6                   000000018001a2c4     kernel32:KERNEL32.dll
 0003:00000030       ?dazSupported@?1??_ctrlfp@@9@9 000000018001b030     LIBCMT:fpctrl.obj
 0003:00000050       errtable                   000000018001b050     LIBCMT:dosmap.obj
 0003:000001b8       ErrnoNoMem                 000000018001b1b8     LIBCMT:dosmap.obj
 0003:000001bc       DoserrorNoMem              000000018001b1bc     LIBCMT:dosmap.obj
 0003:000005f8       __rgctypeflag              000000018001b5f8     LIBCMT:mbctype.obj
 0003:00000600       __rgcode_page_info         000000018001b600     LIBCMT:mbctype.obj
 0003:00000b50       _ctype_loc_style           000000018001bb50     LIBCMT:wsetloca.obj
 0003:00000bb8       ?isPackaged@?1??__crtIsPackagedApp@@9@9 000000018001bbb8     LIBCMT:winapisupp.obj
 0003:00000c10       _locktable                 000000018001bc10     LIBCMT:mlock.obj
 0003:00000e50       ?_names@?1??_get_fname@@9@9 000000018001be50     LIBCMT:fpexcept.obj
 0003:000014d8       DoubleFormat               000000018001c4d8     LIBCMT:intrncvt.obj
 0003:000014f0       FloatFormat                000000018001c4f0     LIBCMT:intrncvt.obj
 0003:000017e0       _module                    000000018001c7e0     buffertools.obj
 0003:000019e8       allocator_arg              000000018001c9e8     libcpmt:syserror.obj
 0003:000019e9       piecewise_construct        000000018001c9e9     libcpmt:syserror.obj
 0003:000019ea       _Tuple_alloc               000000018001c9ea     libcpmt:xthrow.obj
 0003:000019eb       ignore                     000000018001c9eb     libcpmt:xthrow.obj
 0003:000019ec       allocator_arg              000000018001c9ec     libcpmt:xthrow.obj
 0003:000019ed       piecewise_construct        000000018001c9ed     libcpmt:xthrow.obj
 0003:000019f0       __proc_attached            000000018001c9f0     LIBCMT:dllcrt0.obj
 0003:00001a10       GS_ExceptionRecord         000000018001ca10     LIBCMT:gs_report.obj
 0003:00001ab0       GS_ContextRecord           000000018001cab0     LIBCMT:gs_report.obj
 0003:00001f80       DebuggerWasPresent         000000018001cf80     LIBCMT:gs_report.obj
 0003:00001fe0       ctrlc_action               000000018001cfe0     LIBCMT:winsig.obj
 0003:00001fe8       ctrlbreak_action           000000018001cfe8     LIBCMT:winsig.obj
 0003:00001ff0       abort_action               000000018001cff0     LIBCMT:winsig.obj
 0003:00001ff8       term_action                000000018001cff8     LIBCMT:winsig.obj
 0003:00002000       ConsoleCtrlHandler_Installed 000000018001d000     LIBCMT:winsig.obj
 0003:00002048       fSystemSet                 000000018001d048     LIBCMT:mbctype.obj
 0003:00002260       ?_pgmname@?1??_setargv@@9@9 000000018001d260     LIBCMT:stdargv.obj
 0003:00002378       __type_info_root_node      000000018001d378     LIBCMT:typname.obj
 0003:00002390       lclcritsects               000000018001d390     LIBCMT:mlock.obj
 0003:000025d0       ?outmsg@?8??_NMSG_WRITE@@9@9 000000018001d5d0     LIBCMT:crt0msg.obj
 0003:00002bf8       g_pfnRtlGenRandom          000000018001dbf8     LIBCMT:rand_s.obj
 0003:00002c10       __crtCallProc              000000018001dc10     LIBCMT:winapinls.obj
 0003:00002c20       __enable_percent_n         000000018001dc20     LIBCMT:printf.obj
 0003:00002c80       heap                       000000018001dc80     LIBCMT:undname.obj
 0003:00002cb0       ?pfnMessageBox@?1??__crtMessageBoxW@@9@9 000000018001dcb0     LIBCMT:crtmboxw.obj
 0003:00002cb8       ?pfnGetActiveWindow@?1??__crtMessageBoxW@@9@9 000000018001dcb8     LIBCMT:crtmboxw.obj
 0003:00002cc0       ?pfnGetLastActivePopup@?1??__crtMessageBoxW@@9@9 000000018001dcc0     LIBCMT:crtmboxw.obj
 0003:00002cc8       ?pfnGetProcessWindowStation@?1??__crtMessageBoxW@@9@9 000000018001dcc8     LIBCMT:crtmboxw.obj
 0003:00002cd0       ?pfnGetUserObjectInformation@?1??__crtMessageBoxW@@9@9 000000018001dcd0     LIBCMT:crtmboxw.obj
 0003:00002d08       allocator_arg              000000018001dd08     buffertools.obj
 0003:00002d09       piecewise_construct        000000018001dd09     buffertools.obj
 0004:00000000       $pdata$?prepare_goodsuffix_heuristic@@YAXPEBE_KQEAH@Z 000000018001f000     buffertools.obj
 0004:0000000c       $pdata$?boyermoore_search@@YAPEBEPEBE_K01@Z 000000018001f00c     buffertools.obj
 0004:00000018       $pdata$1$?boyermoore_search@@YAPEBEPEBE_K01@Z 000000018001f018     buffertools.obj
 0004:00000024       $pdata$2$?boyermoore_search@@YAPEBEPEBE_K01@Z 000000018001f024     buffertools.obj
 0004:00000030       $pdata$3$?boyermoore_search@@YAPEBEPEBE_K01@Z 000000018001f030     buffertools.obj
 0004:0000003c       $pdata$?snprintf@?A0xf709e2fd@@YAHPEAD_KPEBDZZ 000000018001f03c     buffertools.obj
 0004:00000048       $pdata$?fill@?A0xf709e2fd@@YA?AV?$Local@VValue@v8@@@v8@@V?$Local@VObject@v8@@@3@PEAX_K@Z 000000018001f048     buffertools.obj
 0004:00000054       $pdata$1$?fill@?A0xf709e2fd@@YA?AV?$Local@VValue@v8@@@v8@@V?$Local@VObject@v8@@@3@PEAX_K@Z 000000018001f054     buffertools.obj
 0004:00000060       $pdata$2$?fill@?A0xf709e2fd@@YA?AV?$Local@VValue@v8@@@v8@@V?$Local@VObject@v8@@@3@PEAX_K@Z 000000018001f060     buffertools.obj
 0004:0000006c       $pdata$3$?fill@?A0xf709e2fd@@YA?AV?$Local@VValue@v8@@@v8@@V?$Local@VObject@v8@@@3@PEAX_K@Z 000000018001f06c     buffertools.obj
 0004:00000078       $pdata$4$?fill@?A0xf709e2fd@@YA?AV?$Local@VValue@v8@@@v8@@V?$Local@VObject@v8@@@3@PEAX_K@Z 000000018001f078     buffertools.obj
 0004:00000084       $pdata$?apply@FillAction@?A0xf709e2fd@@QEAA?AV?$Local@VValue@v8@@@v8@@V?$Local@VObject@v8@@@4@AEBV?$FunctionCallbackInfo@VValue@v8@@@4@I@Z 000000018001f084     buffertools.obj
 0004:00000090       $pdata$?apply@IndexOfAction@?A0xf709e2fd@@QEAA?AV?$Local@VValue@v8@@@v8@@V?$Local@VObject@v8@@@4@PEBE_KAEBV?$FunctionCallbackInfo@VValue@v8@@@4@I@Z 000000018001f090     buffertools.obj
 0004:0000009c       $pdata$?decodeHex@?A0xf709e2fd@@YA?AV?$Local@VValue@v8@@@v8@@QEBE_KAEBV?$FunctionCallbackInfo@VValue@v8@@@3@I@Z 000000018001f09c     buffertools.obj
 0004:000000a8       $pdata$?apply@ToHexAction@?A0xf709e2fd@@QEAA?AV?$Local@VValue@v8@@@v8@@V?$Local@VObject@v8@@@4@AEBV?$FunctionCallbackInfo@VValue@v8@@@4@I@Z 000000018001f0a8     buffertools.obj
 0004:000000b4       $pdata$0$?apply@ToHexAction@?A0xf709e2fd@@QEAA?AV?$Local@VValue@v8@@@v8@@V?$Local@VObject@v8@@@4@AEBV?$FunctionCallbackInfo@VValue@v8@@@4@I@Z 000000018001f0b4     buffertools.obj
 0004:000000c0       $pdata$1$?apply@ToHexAction@?A0xf709e2fd@@QEAA?AV?$Local@VValue@v8@@@v8@@V?$Local@VObject@v8@@@4@AEBV?$FunctionCallbackInfo@VValue@v8@@@4@I@Z 000000018001f0c0     buffertools.obj
 0004:000000cc       $pdata$?Clear@?A0xf709e2fd@@YAXAEBV?$FunctionCallbackInfo@VValue@v8@@@v8@@@Z 000000018001f0cc     buffertools.obj
 0004:000000d8       $pdata$0$?Clear@?A0xf709e2fd@@YAXAEBV?$FunctionCallbackInfo@VValue@v8@@@v8@@@Z 000000018001f0d8     buffertools.obj
 0004:000000e4       $pdata$1$?Clear@?A0xf709e2fd@@YAXAEBV?$FunctionCallbackInfo@VValue@v8@@@v8@@@Z 000000018001f0e4     buffertools.obj
 0004:000000f0       $pdata$2$?Clear@?A0xf709e2fd@@YAXAEBV?$FunctionCallbackInfo@VValue@v8@@@v8@@@Z 000000018001f0f0     buffertools.obj
 0004:000000fc       $pdata$3$?Clear@?A0xf709e2fd@@YAXAEBV?$FunctionCallbackInfo@VValue@v8@@@v8@@@Z 000000018001f0fc     buffertools.obj
 0004:00000108       $pdata$4$?Clear@?A0xf709e2fd@@YAXAEBV?$FunctionCallbackInfo@VValue@v8@@@v8@@@Z 000000018001f108     buffertools.obj
 0004:00000114       $pdata$5$?Clear@?A0xf709e2fd@@YAXAEBV?$FunctionCallbackInfo@VValue@v8@@@v8@@@Z 000000018001f114     buffertools.obj
 0004:00000120       $pdata$?Compare@?A0xf709e2fd@@YAXAEBV?$FunctionCallbackInfo@VValue@v8@@@v8@@@Z 000000018001f120     buffertools.obj
 0004:0000012c       $pdata$?Equals@?A0xf709e2fd@@YAXAEBV?$FunctionCallbackInfo@VValue@v8@@@v8@@@Z 000000018001f12c     buffertools.obj
 0004:00000138       $pdata$?Fill@?A0xf709e2fd@@YAXAEBV?$FunctionCallbackInfo@VValue@v8@@@v8@@@Z 000000018001f138     buffertools.obj
 0004:00000144       $pdata$?FromHex@?A0xf709e2fd@@YAXAEBV?$FunctionCallbackInfo@VValue@v8@@@v8@@@Z 000000018001f144     buffertools.obj
 0004:00000150       $pdata$?IndexOf@?A0xf709e2fd@@YAXAEBV?$FunctionCallbackInfo@VValue@v8@@@v8@@@Z 000000018001f150     buffertools.obj
 0004:0000015c       $pdata$?Reverse@?A0xf709e2fd@@YAXAEBV?$FunctionCallbackInfo@VValue@v8@@@v8@@@Z 000000018001f15c     buffertools.obj
 0004:00000168       $pdata$0$?Reverse@?A0xf709e2fd@@YAXAEBV?$FunctionCallbackInfo@VValue@v8@@@v8@@@Z 000000018001f168     buffertools.obj
 0004:00000174       $pdata$1$?Reverse@?A0xf709e2fd@@YAXAEBV?$FunctionCallbackInfo@VValue@v8@@@v8@@@Z 000000018001f174     buffertools.obj
 0004:00000180       $pdata$2$?Reverse@?A0xf709e2fd@@YAXAEBV?$FunctionCallbackInfo@VValue@v8@@@v8@@@Z 000000018001f180     buffertools.obj
 0004:0000018c       $pdata$3$?Reverse@?A0xf709e2fd@@YAXAEBV?$FunctionCallbackInfo@VValue@v8@@@v8@@@Z 000000018001f18c     buffertools.obj
 0004:00000198       $pdata$4$?Reverse@?A0xf709e2fd@@YAXAEBV?$FunctionCallbackInfo@VValue@v8@@@v8@@@Z 000000018001f198     buffertools.obj
 0004:000001a4       $pdata$5$?Reverse@?A0xf709e2fd@@YAXAEBV?$FunctionCallbackInfo@VValue@v8@@@v8@@@Z 000000018001f1a4     buffertools.obj
 0004:000001b0       $pdata$?ToHex@?A0xf709e2fd@@YAXAEBV?$FunctionCallbackInfo@VValue@v8@@@v8@@@Z 000000018001f1b0     buffertools.obj
 0004:000001bc       $pdata$?Concat@?A0xf709e2fd@@YAXAEBV?$FunctionCallbackInfo@VValue@v8@@@v8@@@Z 000000018001f1bc     buffertools.obj
 0004:000001c8       $pdata$0$?Concat@?A0xf709e2fd@@YAXAEBV?$FunctionCallbackInfo@VValue@v8@@@v8@@@Z 000000018001f1c8     buffertools.obj
 0004:000001d4       $pdata$1$?Concat@?A0xf709e2fd@@YAXAEBV?$FunctionCallbackInfo@VValue@v8@@@v8@@@Z 000000018001f1d4     buffertools.obj
 0004:000001e0       $pdata$2$?Concat@?A0xf709e2fd@@YAXAEBV?$FunctionCallbackInfo@VValue@v8@@@v8@@@Z 000000018001f1e0     buffertools.obj
 0004:000001ec       $pdata$3$?Concat@?A0xf709e2fd@@YAXAEBV?$FunctionCallbackInfo@VValue@v8@@@v8@@@Z 000000018001f1ec     buffertools.obj
 0004:000001f8       $pdata$?RegisterModule@?A0xf709e2fd@@YAXV?$Local@VObject@v8@@@v8@@@Z 000000018001f1f8     buffertools.obj
 0004:00000204       $pdata$??R?$BinaryAction@UEqualsAction@?A0xf709e2fd@@@?A0xf709e2fd@@QEAA?AV?$Local@VValue@v8@@@v8@@AEBV?$FunctionCallbackInfo@VValue@v8@@@3@@Z 000000018001f204     buffertools.obj
 0004:00000210       $pdata$0$??R?$BinaryAction@UEqualsAction@?A0xf709e2fd@@@?A0xf709e2fd@@QEAA?AV?$Local@VValue@v8@@@v8@@AEBV?$FunctionCallbackInfo@VValue@v8@@@3@@Z 000000018001f210     buffertools.obj
 0004:0000021c       $pdata$1$??R?$BinaryAction@UEqualsAction@?A0xf709e2fd@@@?A0xf709e2fd@@QEAA?AV?$Local@VValue@v8@@@v8@@AEBV?$FunctionCallbackInfo@VValue@v8@@@3@@Z 000000018001f21c     buffertools.obj
 0004:00000228       $pdata$??R?$BinaryAction@UCompareAction@?A0xf709e2fd@@@?A0xf709e2fd@@QEAA?AV?$Local@VValue@v8@@@v8@@AEBV?$FunctionCallbackInfo@VValue@v8@@@3@@Z 000000018001f228     buffertools.obj
 0004:00000234       $pdata$0$??R?$BinaryAction@UCompareAction@?A0xf709e2fd@@@?A0xf709e2fd@@QEAA?AV?$Local@VValue@v8@@@v8@@AEBV?$FunctionCallbackInfo@VValue@v8@@@3@@Z 000000018001f234     buffertools.obj
 0004:00000240       $pdata$??R?$BinaryAction@UIndexOfAction@?A0xf709e2fd@@@?A0xf709e2fd@@QEAA?AV?$Local@VValue@v8@@@v8@@AEBV?$FunctionCallbackInfo@VValue@v8@@@3@@Z 000000018001f240     buffertools.obj
 0004:0000024c       $pdata$??R?$UnaryAction@UFromHexAction@?A0xf709e2fd@@@?A0xf709e2fd@@QEAA?AV?$Local@VValue@v8@@@v8@@AEBV?$FunctionCallbackInfo@VValue@v8@@@3@@Z 000000018001f24c     buffertools.obj
 0004:00000258       $pdata$0$??R?$UnaryAction@UFromHexAction@?A0xf709e2fd@@@?A0xf709e2fd@@QEAA?AV?$Local@VValue@v8@@@v8@@AEBV?$FunctionCallbackInfo@VValue@v8@@@3@@Z 000000018001f258     buffertools.obj
 0004:00000264       $pdata$1$??R?$UnaryAction@UFromHexAction@?A0xf709e2fd@@@?A0xf709e2fd@@QEAA?AV?$Local@VValue@v8@@@v8@@AEBV?$FunctionCallbackInfo@VValue@v8@@@3@@Z 000000018001f264     buffertools.obj
 0004:00000270       $pdata$?assign@?$basic_string@DU?$char_traits@D@std@@V?$allocator@D@2@@std@@QEAAAEAV12@_KD@Z 000000018001f270     buffertools.obj
 0004:0000027c       $pdata$?_Copy@?$basic_string@DU?$char_traits@D@std@@V?$allocator@D@2@@std@@QEAAX_K0@Z 000000018001f27c     buffertools.obj
 0004:00000288       $pdata$?load_exe_hook@@YAP6A_JXZIPEAUDelayLoadInfo@@@Z 000000018001f288     win_delay_load_hook.obj
 0004:000002a0       $pdata$??0bad_alloc@std@@QEAA@AEBV01@@Z 000000018001f2a0     libcpmt:xthrow.obj
 0004:000002ac       $pdata$??0length_error@std@@QEAA@AEBV01@@Z 000000018001f2ac     libcpmt:xthrow.obj
 0004:000002b8       $pdata$??0logic_error@std@@QEAA@AEBV01@@Z 000000018001f2b8     libcpmt:xthrow.obj
 0004:000002c4       $pdata$??_Gbad_alloc@std@@UEAAPEAXI@Z 000000018001f2c4     libcpmt:xthrow.obj
 0004:000002d0       $pdata$??_Glogic_error@std@@UEAAPEAXI@Z 000000018001f2d0     libcpmt:xthrow.obj
 0004:000002d0       $pdata$??_Glength_error@std@@UEAAPEAXI@Z 000000018001f2d0     libcpmt:xthrow.obj
 0004:000002dc       $pdata$?_Xbad_alloc@std@@YAXXZ 000000018001f2dc     libcpmt:xthrow.obj
 0004:000002e8       $pdata$?_Xlength_error@std@@YAXPEBD@Z 000000018001f2e8     libcpmt:xthrow.obj
 0004:00000300       $pdata$abort               000000018001f300     LIBCMT:abort.obj
 0004:00000318       $pdata$__onexitinit        000000018001f318     LIBCMT:onexit.obj
 0004:00000324       $pdata$_onexit             000000018001f324     LIBCMT:onexit.obj
 0004:00000330       $pdata$atexit              000000018001f330     LIBCMT:onexit.obj
 0004:0000033c       $pdata$_vsnprintf_helper   000000018001f33c     LIBCMT:vsnprnc.obj
 0004:00000348       $pdata$_vsprintf_p         000000018001f348     LIBCMT:vsnprnc.obj
 0004:00000354       $pdata$??2@YAPEAX_K@Z      000000018001f354     LIBCMT:new.obj
 0004:00000360       $pdata$??0_LocaleUpdate@@QEAA@PEAUlocaleinfo_struct@@@Z 000000018001f360     LIBCMT:stricmp.obj
 0004:0000036c       $pdata$_stricmp            000000018001f36c     LIBCMT:stricmp.obj
 0004:00000378       $pdata$_stricmp_l          000000018001f378     LIBCMT:stricmp.obj
 0004:00000384       $pdata$_CRT_INIT           000000018001f384     LIBCMT:dllcrt0.obj
 0004:00000390       $pdata$_DllMainCRTStartup  000000018001f390     LIBCMT:dllcrt0.obj
 0004:0000039c       $pdata$__DllMainCRTStartup 000000018001f39c     LIBCMT:dllcrt0.obj
 0004:000003b4       $pdata$_CxxThrowException  000000018001f3b4     LIBCMT:throw.obj
 0004:000003c0       $pdata$??_Gtype_info@@UEAAPEAXI@Z 000000018001f3c0     LIBCMT:typinfo.obj
 0004:000003cc       $pdata$??0exception@std@@QEAA@AEBQEBD@Z 000000018001f3cc     LIBCMT:stdexcpt.obj
 0004:000003d8       $pdata$??0exception@std@@QEAA@AEBV01@@Z 000000018001f3d8     LIBCMT:stdexcpt.obj
 0004:000003e4       $pdata$??4exception@std@@QEAAAEAV01@AEBV01@@Z 000000018001f3e4     LIBCMT:stdexcpt.obj
 0004:000003f0       $pdata$??_Gexception@std@@UEAAPEAXI@Z 000000018001f3f0     LIBCMT:stdexcpt.obj
 0004:000003fc       $pdata$?_Copy_str@exception@std@@AEAAXPEBD@Z 000000018001f3fc     LIBCMT:stdexcpt.obj
 0004:00000408       $pdata$?_Tidy@exception@std@@AEAAXXZ 000000018001f408     LIBCMT:stdexcpt.obj
 0004:00000414       $pdata$__raise_securityfailure 000000018001f414     LIBCMT:gs_report.obj
 0004:00000420       $pdata$__report_gsfailure  000000018001f420     LIBCMT:gs_report.obj
 0004:0000042c       $pdata$__crtCorExitProcess 000000018001f42c     LIBCMT:crt0dat.obj
 0004:00000438       $pdata$__crtExitProcess    000000018001f438     LIBCMT:crt0dat.obj
 0004:00000444       $pdata$__freeCrtMemory     000000018001f444     LIBCMT:crt0dat.obj
 0004:00000450       $pdata$_amsg_exit          000000018001f450     LIBCMT:crt0dat.obj
 0004:0000045c       $pdata$_cinit              000000018001f45c     LIBCMT:crt0dat.obj
 0004:00000468       $pdata$_init_pointers      000000018001f468     LIBCMT:crt0dat.obj
 0004:00000474       $pdata$_initterm           000000018001f474     LIBCMT:crt0dat.obj
 0004:00000480       $pdata$_initterm_e         000000018001f480     LIBCMT:crt0dat.obj
 0004:0000048c       $pdata$doexit              000000018001f48c     LIBCMT:crt0dat.obj
 0004:00000498       $pdata$raise               000000018001f498     LIBCMT:winsig.obj
 0004:000004a4       $pdata$_call_reportfault   000000018001f4a4     LIBCMT:invarg.obj
 0004:000004b0       $pdata$_invalid_parameter  000000018001f4b0     LIBCMT:invarg.obj
 0004:000004bc       $pdata$_invalid_parameter_noinfo 000000018001f4bc     LIBCMT:invarg.obj
 0004:000004c8       $pdata$_invoke_watson      000000018001f4c8     LIBCMT:invarg.obj
 0004:000004d4       $pdata$__isa_available_init 000000018001f4d4     LIBCMT:cpu_disp.obj
 0004:000004e0       $pdata$_msize              000000018001f4e0     LIBCMT:msize.obj
 0004:000004ec       $pdata$_calloc_crt         000000018001f4ec     LIBCMT:crtheap.obj
 0004:000004f8       $pdata$_malloc_crt         000000018001f4f8     LIBCMT:crtheap.obj
 0004:00000504       $pdata$_realloc_crt        000000018001f504     LIBCMT:crtheap.obj
 0004:00000510       $pdata$__C_specific_handler 000000018001f510     LIBCMT:chandler.obj
 0004:0000051c       $pdata$free                000000018001f51c     LIBCMT:free.obj
 0004:00000528       $pdata$_flsbuf             000000018001f528     LIBCMT:_flsbuf.obj
 0004:00000534       $pdata$_output_p_l         000000018001f534     LIBCMT:outputp.obj
 0004:00000540       $pdata$_validate_param_reuseA 000000018001f540     LIBCMT:outputp.obj
 0004:0000054c       $pdata$write_char          000000018001f54c     LIBCMT:outputp.obj
 0004:00000558       $pdata$write_multi_char    000000018001f558     LIBCMT:outputp.obj
 0004:00000564       $pdata$write_string        000000018001f564     LIBCMT:outputp.obj
 0004:00000570       $pdata$__doserrno          000000018001f570     LIBCMT:dosmap.obj
 0004:0000057c       $pdata$_dosmaperr          000000018001f57c     LIBCMT:dosmap.obj
 0004:00000588       $pdata$_errno              000000018001f588     LIBCMT:dosmap.obj
 0004:000005a0       $pdata$malloc              000000018001f5a0     LIBCMT:malloc.obj
 0004:000005ac       $pdata$_callnewh           000000018001f5ac     LIBCMT:handler.obj
 0004:000005b8       $pdata$__freetlocinfo      000000018001f5b8     LIBCMT:localref.obj
 0004:000005c4       $pdata$__updatetlocinfo    000000018001f5c4     LIBCMT:localref.obj
 0004:000005d0       $pdata$_updatetlocinfoEx_nolock 000000018001f5d0     LIBCMT:localref.obj
 0004:000005dc       $pdata$__initmbctable      000000018001f5dc     LIBCMT:mbctype.obj
 0004:000005e8       $pdata$?getSystemCP@@YAHH@Z 000000018001f5e8     LIBCMT:mbctype.obj
 0004:000005f4       $pdata$?setSBCS@@YAXPEAUthreadmbcinfostruct@@@Z 000000018001f5f4     LIBCMT:mbctype.obj
 0004:00000600       $pdata$?setSBUpLow@@YAXPEAUthreadmbcinfostruct@@@Z 000000018001f600     LIBCMT:mbctype.obj
 0004:0000060c       $pdata$__updatetmbcinfo    000000018001f60c     LIBCMT:mbctype.obj
 0004:00000618       $pdata$_setmbcp            000000018001f618     LIBCMT:mbctype.obj
 0004:00000624       $pdata$_setmbcp_nolock     000000018001f624     LIBCMT:mbctype.obj
 0004:00000630       $pdata$_tolower_l          000000018001f630     LIBCMT:tolower.obj
 0004:0000063c       $pdata$_freefls            000000018001f63c     LIBCMT:tidtable.obj
 0004:00000648       $pdata$_freeptd            000000018001f648     LIBCMT:tidtable.obj
 0004:00000654       $pdata$_getptd             000000018001f654     LIBCMT:tidtable.obj
 0004:00000660       $pdata$_getptd_noexit      000000018001f660     LIBCMT:tidtable.obj
 0004:0000066c       $pdata$_initptd            000000018001f66c     LIBCMT:tidtable.obj
 0004:00000678       $pdata$_mtinit             000000018001f678     LIBCMT:tidtable.obj
 0004:00000684       $pdata$_mtterm             000000018001f684     LIBCMT:tidtable.obj
 0004:00000690       $pdata$_locterm            000000018001f690     LIBCMT:wsetloca.obj
 0004:0000069c       $pdata$_XcptFilter         000000018001f69c     LIBCMT:winxfltr.obj
 0004:000006a8       $pdata$_heap_init          000000018001f6a8     LIBCMT:heapinit.obj
 0004:000006b4       $pdata$_ioinit             000000018001f6b4     LIBCMT:ioinit.obj
 0004:000006c0       $pdata$_ioterm             000000018001f6c0     LIBCMT:ioinit.obj
 0004:000006cc       $pdata$_setargv            000000018001f6cc     LIBCMT:stdargv.obj
 0004:000006d8       $pdata$parse_cmdline       000000018001f6d8     LIBCMT:stdargv.obj
 0004:000006e4       $pdata$_setenvp            000000018001f6e4     LIBCMT:stdenvp.obj
 0004:000006f0       $pdata$__security_init_cookie 000000018001f6f0     LIBCMT:gs_support.obj
 0004:000006fc       $pdata$__crtGetEnvironmentStringsA 000000018001f6fc     LIBCMT:a_env.obj
 0004:00000708       $pdata$__crtCaptureCurrentContext 000000018001f708     LIBCMT:winapisupp.obj
 0004:00000714       $pdata$__crtCapturePreviousContext 000000018001f714     LIBCMT:winapisupp.obj
 0004:00000720       $pdata$__crtInitializeCriticalSectionEx 000000018001f720     LIBCMT:winapisupp.obj
 0004:0000072c       $pdata$__crtIsPackagedApp  000000018001f72c     LIBCMT:winapisupp.obj
 0004:00000738       $pdata$__crtLoadWinApiPointers 000000018001f738     LIBCMT:winapisupp.obj
 0004:00000744       $pdata$__crtTerminateProcess 000000018001f744     LIBCMT:winapisupp.obj
 0004:00000750       $pdata$__crtUnhandledException 000000018001f750     LIBCMT:winapisupp.obj
 0004:0000075c       $pdata$_RTC_Initialize     000000018001f75c     LIBCMT:initsect.obj
 0004:00000768       $pdata$_RTC_Terminate      000000018001f768     LIBCMT:initsect.obj
 0004:00000774       $pdata$__DestructExceptionObject 000000018001f774     LIBCMT:frame.obj
 0004:00000780       $pdata$?terminate@@YAXXZ   000000018001f780     LIBCMT:hooks.obj
 0004:0000078c       $pdata$_initp_eh_hooks     000000018001f78c     LIBCMT:hooks.obj
 0004:00000798       $pdata$__GSHandlerCheck    000000018001f798     LIBCMT:gshandler.obj
 0004:000007a4       $pdata$__GSHandlerCheckCommon 000000018001f7a4     LIBCMT:gshandler.obj
 0004:000007bc       $pdata$?_Type_info_dtor@type_info@@CAXPEAV1@@Z 000000018001f7bc     LIBCMT:typname.obj
 0004:000007c8       $pdata$_cfltcvt            000000018001f7c8     LIBCMT:cvt.obj
 0004:000007d4       $pdata$_cfltcvt_l          000000018001f7d4     LIBCMT:cvt.obj
 0004:000007e0       $pdata$_cftoa_l            000000018001f7e0     LIBCMT:cvt.obj
 0004:000007ec       $pdata$_cftoe2_l           000000018001f7ec     LIBCMT:cvt.obj
 0004:000007f8       $pdata$_cftoe_l            000000018001f7f8     LIBCMT:cvt.obj
 0004:00000804       $pdata$_cftof2_l           000000018001f804     LIBCMT:cvt.obj
 0004:00000810       $pdata$_cftof_l            000000018001f810     LIBCMT:cvt.obj
 0004:0000081c       $pdata$_cftog_l            000000018001f81c     LIBCMT:cvt.obj
 0004:00000828       $pdata$_cropzeros_l        000000018001f828     LIBCMT:cvt.obj
 0004:00000834       $pdata$_fassign_l          000000018001f834     LIBCMT:cvt.obj
 0004:00000840       $pdata$_forcdecpt_l        000000018001f840     LIBCMT:cvt.obj
 0004:0000084c       $pdata$_initp_misc_cfltcvt_tab 000000018001f84c     LIBCMT:cmiscdat.obj
 0004:00000858       $pdata$strcpy_s            000000018001f858     LIBCMT:strcpy_s.obj
 0004:00000864       $pdata$_lock               000000018001f864     LIBCMT:mlock.obj
 0004:00000870       $pdata$_mtdeletelocks      000000018001f870     LIBCMT:mlock.obj
 0004:0000087c       $pdata$_mtinitlocknum      000000018001f87c     LIBCMT:mlock.obj
 0004:00000888       $pdata$_mtinitlocks        000000018001f888     LIBCMT:mlock.obj
 0004:00000894       $pdata$_FF_MSGBANNER       000000018001f894     LIBCMT:crt0msg.obj
 0004:000008a0       $pdata$_NMSG_WRITE         000000018001f8a0     LIBCMT:crt0msg.obj
 0004:000008ac       $pdata$_IsNonwritableInCurrentImage 000000018001f8ac     LIBCMT:pesect.obj
 0004:000008b8       $pdata$realloc             000000018001f8b8     LIBCMT:realloc.obj
 0004:000008c4       $pdata$_calloc_impl        000000018001f8c4     LIBCMT:calloc_impl.obj
 0004:00000900       $pdata$GetTableIndexFromLocaleName 000000018001f900     LIBCMT:winapinls.obj
 0004:0000090c       $pdata$__crtDownlevelLocaleNameToLCID 000000018001f90c     LIBCMT:winapinls.obj
 0004:00000918       $pdata$__crtLCMapStringEx  000000018001f918     LIBCMT:winapinls.obj
 0004:00000930       $pdata$__initstdio         000000018001f930     LIBCMT:_file.obj
 0004:0000093c       $pdata$__endstdio          000000018001f93c     LIBCMT:_file.obj
 0004:00000948       $pdata$_lock_file          000000018001f948     LIBCMT:_file.obj
 0004:00000954       $pdata$_lock_file2         000000018001f954     LIBCMT:_file.obj
 0004:00000960       $pdata$_fileno             000000018001f960     LIBCMT:fileno.obj
 0004:0000096c       $pdata$_isatty             000000018001f96c     LIBCMT:isatty.obj
 0004:00000978       $pdata$_write              000000018001f978     LIBCMT:write.obj
 0004:00000984       $pdata$_write_nolock       000000018001f984     LIBCMT:write.obj
 0004:00000990       $pdata$_lseeki64           000000018001f990     LIBCMT:lseeki64.obj
 0004:0000099c       $pdata$_lseeki64_nolock    000000018001f99c     LIBCMT:lseeki64.obj
 0004:000009a8       $pdata$_getbuf             000000018001f9a8     LIBCMT:_getbuf.obj
 0004:000009b4       $pdata$_isleadbyte_l       000000018001f9b4     LIBCMT:_wctype.obj
 0004:000009c0       $pdata$isleadbyte          000000018001f9c0     LIBCMT:_wctype.obj
 0004:000009cc       $pdata$_wctomb_s_l         000000018001f9cc     LIBCMT:wctomb.obj
 0004:000009d8       $pdata$wctomb_s            000000018001f9d8     LIBCMT:wctomb.obj
 0004:000009e4       $pdata$?strtoxl@@YAKPEAUlocaleinfo_struct@@PEBDPEAPEBDHH@Z 000000018001f9e4     LIBCMT:strtol.obj
 0004:000009f0       $pdata$strtol              000000018001f9f0     LIBCMT:strtol.obj
 0004:000009fc       $pdata$__free_lconv_mon    000000018001f9fc     LIBCMT:initmon.obj
 0004:00000a08       $pdata$__free_lconv_num    000000018001fa08     LIBCMT:initnum.obj
 0004:00000a14       $pdata$__free_lc_time      000000018001fa14     LIBCMT:inittime.obj
 0004:00000a20       $pdata$?__crtLCMapStringA_stat@@YAHPEAUlocaleinfo_struct@@PEB_WKPEBDHPEADHHH@Z 000000018001fa20     LIBCMT:a_map.obj
 0004:00000a2c       $pdata$__crtLCMapStringA   000000018001fa2c     LIBCMT:a_map.obj
 0004:00000a38       $pdata$?__crtGetStringTypeA_stat@@YAHPEAUlocaleinfo_struct@@KPEBDHPEAGHH@Z 000000018001fa38     LIBCMT:a_str.obj
 0004:00000a44       $pdata$__crtGetStringTypeA 000000018001fa44     LIBCMT:a_str.obj
 0004:00000a50       $pdata$_isctype_l          000000018001fa50     LIBCMT:isctype.obj
 0004:00000a68       $pdata$wcscat_s            000000018001fa68     LIBCMT:wcscat_s.obj
 0004:00000a74       $pdata$wcscpy_s            000000018001fa74     LIBCMT:wcscpy_s.obj
 0004:00000a80       $pdata$wcsncpy_s           000000018001fa80     LIBCMT:wcsncpy_s.obj
 0004:00000a8c       $pdata$?x_ismbbtype_l@@YAHPEAUlocaleinfo_struct@@IHH@Z 000000018001fa8c     LIBCMT:ismbbyte.obj
 0004:00000aa4       $pdata$isdigit             000000018001faa4     LIBCMT:_ctype.obj
 0004:00000ab0       $pdata$strrchr             000000018001fab0     LIBCMT:strrchr.obj
 0004:00000abc       $pdata$_fptostr            000000018001fabc     LIBCMT:_fptostr.obj
 0004:00000ac8       $pdata$__crt_atoflt_l      000000018001fac8     LIBCMT:atodbl.obj
 0004:00000ad4       $pdata$_atodbl_l           000000018001fad4     LIBCMT:atodbl.obj
 0004:00000ae0       $pdata$__dtold             000000018001fae0     LIBCMT:cfout.obj
 0004:00000aec       $pdata$_fltout2            000000018001faec     LIBCMT:cfout.obj
 0004:00000af8       $pdata$_set_error_mode     000000018001faf8     LIBCMT:errmode.obj
 0004:00000b04       $pdata$__crtMessageBoxW    000000018001fb04     LIBCMT:crtmboxw.obj
 0004:00000b10       $pdata$_fflush_nolock      000000018001fb10     LIBCMT:fflush.obj
 0004:00000b1c       $pdata$_flush              000000018001fb1c     LIBCMT:fflush.obj
 0004:00000b28       $pdata$flsall              000000018001fb28     LIBCMT:fflush.obj
 0004:00000b40       $pdata$_fcloseall          000000018001fb40     LIBCMT:closeall.obj
 0004:00000b4c       $pdata$__lock_fhandle      000000018001fb4c     LIBCMT:osfinfo.obj
 0004:00000b58       $pdata$_free_osfhnd        000000018001fb58     LIBCMT:osfinfo.obj
 0004:00000b64       $pdata$_get_osfhandle      000000018001fb64     LIBCMT:osfinfo.obj
 0004:00000b70       $pdata$_mbtowc_l           000000018001fb70     LIBCMT:mbtowc.obj
 0004:00000b7c       $pdata$_putwch_nolock      000000018001fb7c     LIBCMT:putwch.obj
 0004:00000b88       $pdata$_ld12tod            000000018001fb88     LIBCMT:intrncvt.obj
 0004:00000b94       $pdata$_ld12tof            000000018001fb94     LIBCMT:intrncvt.obj
 0004:00000ba0       $pdata$__strgtold12_l      000000018001fba0     LIBCMT:strgtold.obj
 0004:00000bac       $pdata$$I10_OUTPUT         000000018001fbac     LIBCMT:x10fout.obj
 0004:00000bb8       $pdata$_commit             000000018001fbb8     LIBCMT:commit.obj
 0004:00000bc4       $pdata$_fclose_nolock      000000018001fbc4     LIBCMT:fclose.obj
 0004:00000bd0       $pdata$fclose              000000018001fbd0     LIBCMT:fclose.obj
 0004:00000bdc       $pdata$__termconout        000000018001fbdc     LIBCMT:initcon.obj
 0004:00000be8       $pdata$__initconout        000000018001fbe8     LIBCMT:initcon.obj
 0004:00000bf4       $pdata$__mtold12           000000018001fbf4     LIBCMT:mantold.obj
 0004:00000c00       $pdata$_close              000000018001fc00     LIBCMT:close.obj
 0004:00000c0c       $pdata$_close_nolock       000000018001fc0c     LIBCMT:close.obj
 0004:00000c18       $pdata$_freebuf            000000018001fc18     LIBCMT:_freebuf.obj
 0004:00000c24       $pdata$__delayLoadHelper2  000000018001fc24     DelayImp:delayhlp.obj
 0004:00000c30       $pdata$_onexit$fin$0       000000018001fc30     LIBCMT:onexit.obj
 0004:00000c3c       $pdata$_CRT_INIT$fin$0     000000018001fc3c     LIBCMT:dllcrt0.obj
 0004:00000c48       $pdata$__DllMainCRTStartup$filt$0 000000018001fc48     LIBCMT:dllcrt0.obj
 0004:00000c54       $pdata$doexit$fin$0        000000018001fc54     LIBCMT:crt0dat.obj
 0004:00000c60       $pdata$raise$fin$0         000000018001fc60     LIBCMT:winsig.obj
 0004:00000c6c       $pdata$__updatetmbcinfo$fin$0 000000018001fc6c     LIBCMT:mbctype.obj
 0004:00000c6c       $pdata$_setmbcp$fin$0      000000018001fc6c     LIBCMT:mbctype.obj
 0004:00000c78       $pdata$_freefls$fin$1      000000018001fc78     LIBCMT:tidtable.obj
 0004:00000c78       $pdata$_initptd$fin$1      000000018001fc78     LIBCMT:tidtable.obj
 0004:00000c84       $pdata$_initptd$fin$0      000000018001fc84     LIBCMT:tidtable.obj
 0004:00000c84       $pdata$_freefls$fin$0      000000018001fc84     LIBCMT:tidtable.obj
 0004:00000c90       $pdata$_locterm$fin$0      000000018001fc90     LIBCMT:wsetloca.obj
 0004:00000c90       $pdata$__updatetlocinfo$fin$0 000000018001fc90     LIBCMT:wsetloca.obj
 0004:00000c9c       $pdata$_ioinit$fin$0       000000018001fc9c     LIBCMT:ioinit.obj
 0004:00000ca8       $pdata$__DestructExceptionObject$filt$0 000000018001fca8     LIBCMT:frame.obj
 0004:00000cb4       $pdata$?fin$0@?0??_Type_info_dtor@type_info@@CAXPEAV1@@Z@4HA 000000018001fcb4     LIBCMT:typname.obj
 0004:00000cc0       $pdata$_mtinitlocknum$fin$0 000000018001fcc0     LIBCMT:mlock.obj
 0004:00000ccc       $pdata$_IsNonwritableInCurrentImage$filt$0 000000018001fccc     LIBCMT:pesect.obj
 0004:00000cd8       $pdata$_write$fin$0        000000018001fcd8     LIBCMT:lseeki64.obj
 0004:00000cd8       $pdata$_lseeki64$fin$0     000000018001fcd8     LIBCMT:lseeki64.obj
 0004:00000ce4       $pdata$flsall$fin$0        000000018001fce4     LIBCMT:fflush.obj
 0004:00000cf0       $pdata$flsall$fin$1        000000018001fcf0     LIBCMT:fflush.obj
 0004:00000cfc       $pdata$_fcloseall$fin$0    000000018001fcfc     LIBCMT:closeall.obj
 0004:00000d08       $pdata$__lock_fhandle$fin$0 000000018001fd08     LIBCMT:osfinfo.obj
 0004:00000d14       $pdata$fclose$fin$0        000000018001fd14     LIBCMT:fclose.obj
 0004:00000d20       $pdata$_commit$fin$0       000000018001fd20     LIBCMT:close.obj
 0004:00000d20       $pdata$_close$fin$0        000000018001fd20     LIBCMT:close.obj
 0005:00000060       $R000000                   0000000180020060     * linker generated manifest res *

 Exports

  ordinal    name

        1    _register_buffertools_
